
========================================================================

** ELF Header Information

    File Name: .\obj\NK-NADC24B_Example.axf

    Machine class: ELFCLASS32 (32-bit)
    Data encoding: ELFDATA2LSB (Little endian)
    Header version: EV_CURRENT (Current version)
    Operating System ABI: none
    ABI Version: 0
    File Type: ET_EXEC (Executable) (2)
    Machine: EM_ARM (ARM)

    Image Entry point: 0x00000155
    Flags: EF_ARM_HASENTRY + EF_ARM_ABI_FLOAT_SOFT (0x05000202)

    ARM ELF revision: 5 (ABI version 2)

    Conforms to Soft float procedure-call standard

    Built with
    Component: Arm Compiler for Embedded 6.24 Tool: armasm [5f371400]
    Component: Arm Compiler for Embedded 6.24 Tool: armlink [5f371500]

    Header size: 52 bytes (0x34)
    Program header entry size: 32 bytes (0x20)
    Section header entry size: 40 bytes (0x28)

    Program header entries: 1
    Section header entries: 16

    Program header offset: 89920 (0x00015f40)
    Section header offset: 89952 (0x00015f60)

    Section header string table index: 15

========================================================================

** Program header #0 (PT_LOAD) [PF_X + PF_W + PF_R + PF_ARM_ENTRY]
    Size : 11944 bytes (9800 bytes in file)
    Virtual address: 0x00000000 (Alignment 8)


========================================================================

** Section #1 'ER_RO' (SHT_PROGBITS) [SHF_ALLOC + SHF_EXECINSTR]
    Size   : 9784 bytes (alignment 4)
    Address: 0x00000000

    $d.realdata
    RESET
    __Vectors
        0x00000000:    20000870    p..     DCD    536873072
        0x00000004:    00000155    U...    DCD    341
        0x00000008:    0000018d    ....    DCD    397
        0x0000000c:    0000018f    ....    DCD    399
        0x00000010:    00001a39    9...    DCD    6713
        0x00000014:    00000b89    ....    DCD    2953
        0x00000018:    00000000    ....    DCD    0
        0x0000001c:    00000000    ....    DCD    0
        0x00000020:    00000000    ....    DCD    0
        0x00000024:    00000000    ....    DCD    0
        0x00000028:    00000000    ....    DCD    0
        0x0000002c:    0000019f    ....    DCD    415
        0x00000030:    00000000    ....    DCD    0
        0x00000034:    00000000    ....    DCD    0
        0x00000038:    000001a1    ....    DCD    417
        0x0000003c:    000001a3    ....    DCD    419
        0x00000040:    000001a5    ....    DCD    421
        0x00000044:    000001a5    ....    DCD    421
        0x00000048:    000001a5    ....    DCD    421
        0x0000004c:    000001a5    ....    DCD    421
        0x00000050:    000001a5    ....    DCD    421
        0x00000054:    000001a5    ....    DCD    421
        0x00000058:    000001a5    ....    DCD    421
        0x0000005c:    000001a5    ....    DCD    421
        0x00000060:    000001a5    ....    DCD    421
        0x00000064:    000001a5    ....    DCD    421
        0x00000068:    000001a5    ....    DCD    421
        0x0000006c:    000001a5    ....    DCD    421
        0x00000070:    000001a5    ....    DCD    421
        0x00000074:    000001a5    ....    DCD    421
        0x00000078:    000001a5    ....    DCD    421
        0x0000007c:    000001a5    ....    DCD    421
        0x00000080:    00000aa9    ....    DCD    2729
        0x00000084:    000001a5    ....    DCD    421
        0x00000088:    000001a5    ....    DCD    421
        0x0000008c:    000001a5    ....    DCD    421
        0x00000090:    000001a5    ....    DCD    421
        0x00000094:    000001a5    ....    DCD    421
        0x00000098:    000001a5    ....    DCD    421
        0x0000009c:    000001a5    ....    DCD    421
        0x000000a0:    000001a5    ....    DCD    421
        0x000000a4:    000001a5    ....    DCD    421
        0x000000a8:    000001a5    ....    DCD    421
        0x000000ac:    000001a5    ....    DCD    421
        0x000000b0:    000001a5    ....    DCD    421
        0x000000b4:    000001a5    ....    DCD    421
        0x000000b8:    000001a5    ....    DCD    421
        0x000000bc:    000001a5    ....    DCD    421
        0x000000c0:    000001a5    ....    DCD    421
        0x000000c4:    000001a5    ....    DCD    421
        0x000000c8:    000001a5    ....    DCD    421
        0x000000cc:    000001a5    ....    DCD    421
        0x000000d0:    000001a5    ....    DCD    421
        0x000000d4:    000001a5    ....    DCD    421
        0x000000d8:    000001a5    ....    DCD    421
        0x000000dc:    000001a5    ....    DCD    421
        0x000000e0:    000001a5    ....    DCD    421
        0x000000e4:    000001a5    ....    DCD    421
        0x000000e8:    000001a5    ....    DCD    421
        0x000000ec:    000001a5    ....    DCD    421
        0x000000f0:    000001a5    ....    DCD    421
        0x000000f4:    000001a5    ....    DCD    421
        0x000000f8:    000001a5    ....    DCD    421
        0x000000fc:    000001a5    ....    DCD    421
        0x00000100:    000001a5    ....    DCD    421
        0x00000104:    000001a5    ....    DCD    421
        0x00000108:    000001a5    ....    DCD    421
        0x0000010c:    000001a5    ....    DCD    421
        0x00000110:    000001a5    ....    DCD    421
        0x00000114:    000001a5    ....    DCD    421
        0x00000118:    000001a5    ....    DCD    421
        0x0000011c:    000001a5    ....    DCD    421
        0x00000120:    000001a5    ....    DCD    421
        0x00000124:    000001a5    ....    DCD    421
        0x00000128:    000001a5    ....    DCD    421
        0x0000012c:    000001a5    ....    DCD    421
        0x00000130:    000001a5    ....    DCD    421
        0x00000134:    000001a5    ....    DCD    421
        0x00000138:    000001a5    ....    DCD    421
        0x0000013c:    000001a5    ....    DCD    421
    $t
    .ARM.Collect$$$$00000000
    .ARM.Collect$$$$00000001
    __Vectors_End
    __main
    _main_stk
        0x00000140:    4803        .H      LDR      r0,__lit__00000000 ; [0x150] = 0x20000870
        0x00000142:    4685        .F      MOV      sp,r0
    .ARM.Collect$$$$00000004
    _main_scatterload
        0x00000144:    f000fb1a    ....    BL       __scatterload ; 0x77c
    .ARM.Collect$$$$00000008
    .ARM.Collect$$$$0000000A
    .ARM.Collect$$$$0000000B
    __main_after_scatterload
    _main_clock
    _main_cpp_init
    _main_init
        0x00000148:    4800        .H      LDR      r0,[pc,#0] ; [0x14c] = 0x1bd9
        0x0000014a:    4700        .G      BX       r0
    $d
        0x0000014c:    00001bd9    ....    DCD    7129
    .ARM.Collect$$$$00002712
    __lit__00000000
    .ARM.Collect$$$$0000000D
    .ARM.Collect$$$$0000000F
    __rt_final_cpp
    __rt_final_exit
        0x00000150:    20000870    p..     DCD    536873072
    $t
    .text
    Reset_Handler
        0x00000154:    4818        .H      LDR      r0,[pc,#96] ; [0x1b8] = 0x40000100
        0x00000156:    f2400159    @.Y.    MOVW     r1,#0x59
        0x0000015a:    6001        .`      STR      r1,[r0,#0]
        0x0000015c:    f2400116    @...    MOVW     r1,#0x16
        0x00000160:    6001        .`      STR      r1,[r0,#0]
        0x00000162:    f2400188    @...    MOVW     r1,#0x88
        0x00000166:    6001        .`      STR      r1,[r0,#0]
        0x00000168:    4814        .H      LDR      r0,[pc,#80] ; [0x1bc] = 0x1aad
        0x0000016a:    4780        .G      BLX      r0
        0x0000016c:    4814        .H      LDR      r0,[pc,#80] ; [0x1c0] = 0x40000180
        0x0000016e:    6801        .h      LDR      r1,[r0,#0]
        0x00000170:    2280        ."      MOVS     r2,#0x80
        0x00000172:    4391        .C      BICS     r1,r1,r2
        0x00000174:    6001        .`      STR      r1,[r0,#0]
        0x00000176:    4a13        .J      LDR      r2,[pc,#76] ; [0x1c4] = 0x40000024
        0x00000178:    f64521a5    E..!    MOV      r1,#0x5aa5
        0x0000017c:    6011        .`      STR      r1,[r2,#0]
        0x0000017e:    4a12        .J      LDR      r2,[pc,#72] ; [0x1c8] = 0x400001ec
        0x00000180:    6011        .`      STR      r1,[r2,#0]
        0x00000182:    480d        .H      LDR      r0,[pc,#52] ; [0x1b8] = 0x40000100
        0x00000184:    2100        .!      MOVS     r1,#0
        0x00000186:    6001        .`      STR      r1,[r0,#0]
        0x00000188:    4810        .H      LDR      r0,[pc,#64] ; [0x1cc] = 0x141
        0x0000018a:    4700        .G      BX       r0
    NMI_Handler
        0x0000018c:    e7fe        ..      B        NMI_Handler ; 0x18c
    HardFault_Handler
        0x0000018e:    4670        pF      MOV      r0,lr
        0x00000190:    f3ef8108    ....    MRS      r1,MSP
        0x00000194:    f3ef8209    ....    MRS      r2,PSP
        0x00000198:    4b0d        .K      LDR      r3,[pc,#52] ; [0x1d0] = 0x13f1
        0x0000019a:    4798        .G      BLX      r3
        0x0000019c:    4700        .G      BX       r0
    SVC_Handler
        0x0000019e:    e7fe        ..      B        SVC_Handler ; 0x19e
    PendSV_Handler
        0x000001a0:    e7fe        ..      B        PendSV_Handler ; 0x1a0
    SysTick_Handler
        0x000001a2:    e7fe        ..      B        SysTick_Handler ; 0x1a2
    ACMP01_IRQHandler
    BOD_IRQHandler
    BPWM0_IRQHandler
    BPWM1_IRQHandler
    BRAKE0_IRQHandler
    BRAKE1_IRQHandler
    CLKFAIL_IRQHandler
    CRPT_IRQHandler
    DAC_IRQHandler
    DEFAULT_IRQHandler
    EADC_INT0_IRQHandler
    EADC_INT1_IRQHandler
    EADC_INT2_IRQHandler
    EADC_INT3_IRQHandler
    EINT0_IRQHandler
    EINT1_IRQHandler
    EINT2_IRQHandler
    EINT3_IRQHandler
    EINT4_IRQHandler
    EINT5_IRQHandler
    GPB_IRQHandler
    GPC_IRQHandler
    GPD_IRQHandler
    GPE_IRQHandler
    GPF_IRQHandler
    I2C0_IRQHandler
    I2C1_IRQHandler
    IRCTRIM_IRQHandler
    LCD_IRQHandler
    OPA_IRQHandler
    PDMA_IRQHandler
    PSIO_IRQHandler
    PWM0_P0_IRQHandler
    PWM0_P1_IRQHandler
    PWM0_P2_IRQHandler
    PWM1_P0_IRQHandler
    PWM1_P1_IRQHandler
    PWM1_P2_IRQHandler
    PWRWU_IRQHandler
    QSPI0_IRQHandler
    RTC_IRQHandler
    SC0_IRQHandler
    SPI0_IRQHandler
    SPI1_IRQHandler
    TAMPER_IRQHandler
    TK_IRQHandler
    TMR0_IRQHandler
    TMR1_IRQHandler
    TMR2_IRQHandler
    TMR3_IRQHandler
    UART0_IRQHandler
    UART1_IRQHandler
    UART2_IRQHandler
    UART3_IRQHandler
    USBD_IRQHandler
    USCI0_IRQHandler
    USCI1_IRQHandler
    USCI2_IRQHandler
    WDT_IRQHandler
    WWDT_IRQHandler
        0x000001a4:    e7fe        ..      B        ACMP01_IRQHandler ; 0x1a4
    $d
        0x000001a6:    0000        ..      DCW    0
    $t
    SH_DoCommand
        0x000001a8:    beab        ..      BKPT     #0xab
        0x000001aa:    4b0a        .K      LDR      r3,[pc,#40] ; [0x1d4] = 0x167d
        0x000001ac:    b508        ..      PUSH     {r3,lr}
        0x000001ae:    4798        .G      BLX      r3
        0x000001b0:    bd08        ..      POP      {r3,pc}
    __PC
        0x000001b2:    4670        pF      MOV      r0,lr
        0x000001b4:    47f0        .G      BLX      lr
    $d
        0x000001b6:    0000        ..      DCW    0
        0x000001b8:    40000100    ...@    DCD    1073742080
        0x000001bc:    00001aad    ....    DCD    6829
        0x000001c0:    40000180    ...@    DCD    1073742208
        0x000001c4:    40000024    $..@    DCD    1073741860
        0x000001c8:    400001ec    ...@    DCD    1073742316
        0x000001cc:    00000141    A...    DCD    321
        0x000001d0:    000013f1    ....    DCD    5105
        0x000001d4:    0000167d    }...    DCD    5757
    $t
    .text
    __aeabi_dmul
        0x000001d8:    b5f0        ..      PUSH     {r4-r7,lr}
        0x000001da:    b41f        ..      PUSH     {r0-r4}
        0x000001dc:    b088        ..      SUB      sp,sp,#0x20
        0x000001de:    990b        ..      LDR      r1,[sp,#0x2c]
        0x000001e0:    9809        ..      LDR      r0,[sp,#0x24]
        0x000001e2:    2400        .$      MOVS     r4,#0
        0x000001e4:    4048        H@      EORS     r0,r0,r1
        0x000001e6:    9909        ..      LDR      r1,[sp,#0x24]
        0x000001e8:    0fc0        ..      LSRS     r0,r0,#31
        0x000001ea:    0049        I.      LSLS     r1,r1,#1
        0x000001ec:    0849        I.      LSRS     r1,r1,#1
        0x000001ee:    9109        ..      STR      r1,[sp,#0x24]
        0x000001f0:    07c0        ..      LSLS     r0,r0,#31
        0x000001f2:    990b        ..      LDR      r1,[sp,#0x2c]
        0x000001f4:    9000        ..      STR      r0,[sp,#0]
        0x000001f6:    0049        I.      LSLS     r1,r1,#1
        0x000001f8:    0849        I.      LSRS     r1,r1,#1
        0x000001fa:    910b        ..      STR      r1,[sp,#0x2c]
        0x000001fc:    9909        ..      LDR      r1,[sp,#0x24]
        0x000001fe:    9808        ..      LDR      r0,[sp,#0x20]
        0x00000200:    46a6        .F      MOV      lr,r4
        0x00000202:    4308        .C      ORRS     r0,r0,r1
        0x00000204:    d01c        ..      BEQ      0x240 ; __aeabi_dmul + 104
        0x00000206:    990b        ..      LDR      r1,[sp,#0x2c]
        0x00000208:    980a        ..      LDR      r0,[sp,#0x28]
        0x0000020a:    4308        .C      ORRS     r0,r0,r1
        0x0000020c:    d018        ..      BEQ      0x240 ; __aeabi_dmul + 104
        0x0000020e:    9809        ..      LDR      r0,[sp,#0x24]
        0x00000210:    2401        .$      MOVS     r4,#1
        0x00000212:    0040        @.      LSLS     r0,r0,#1
        0x00000214:    0d42        B.      LSRS     r2,r0,#21
        0x00000216:    0048        H.      LSLS     r0,r1,#1
        0x00000218:    0d41        A.      LSRS     r1,r0,#21
        0x0000021a:    9809        ..      LDR      r0,[sp,#0x24]
        0x0000021c:    0524        $.      LSLS     r4,r4,#20
        0x0000021e:    0300        ..      LSLS     r0,r0,#12
        0x00000220:    0b00        ..      LSRS     r0,r0,#12
        0x00000222:    4320         C      ORRS     r0,r0,r4
        0x00000224:    9009        ..      STR      r0,[sp,#0x24]
        0x00000226:    980b        ..      LDR      r0,[sp,#0x2c]
        0x00000228:    0300        ..      LSLS     r0,r0,#12
        0x0000022a:    0b00        ..      LSRS     r0,r0,#12
        0x0000022c:    4320         C      ORRS     r0,r0,r4
        0x0000022e:    900b        ..      STR      r0,[sp,#0x2c]
        0x00000230:    1850        P.      ADDS     r0,r2,r1
        0x00000232:    491c        .I      LDR      r1,[pc,#112] ; [0x2a4] = 0xfffffc0d
        0x00000234:    1840        @.      ADDS     r0,r0,r1
        0x00000236:    2200        ."      MOVS     r2,#0
        0x00000238:    9001        ..      STR      r0,[sp,#4]
        0x0000023a:    4614        .F      MOV      r4,r2
        0x0000023c:    4610        .F      MOV      r0,r2
        0x0000023e:    e005        ..      B        0x24c ; __aeabi_dmul + 116
        0x00000240:    2000        .       MOVS     r0,#0
        0x00000242:    4601        .F      MOV      r1,r0
        0x00000244:    b00d        ..      ADD      sp,sp,#0x34
        0x00000246:    bdf0        ..      POP      {r4-r7,pc}
        0x00000248:    2803        .(      CMP      r0,#3
        0x0000024a:    da01        ..      BGE      0x250 ; __aeabi_dmul + 120
        0x0000024c:    4603        .F      MOV      r3,r0
        0x0000024e:    e000        ..      B        0x252 ; __aeabi_dmul + 122
        0x00000250:    2303        .#      MOVS     r3,#3
        0x00000252:    469c        .F      MOV      r12,r3
        0x00000254:    1ac1        ..      SUBS     r1,r0,r3
        0x00000256:    ae0a        ..      ADD      r6,sp,#0x28
        0x00000258:    e00a        ..      B        0x270 ; __aeabi_dmul + 152
        0x0000025a:    005f        _.      LSLS     r7,r3,#1
        0x0000025c:    ad08        ..      ADD      r5,sp,#0x20
        0x0000025e:    5bed        .[      LDRH     r5,[r5,r7]
        0x00000260:    004f        O.      LSLS     r7,r1,#1
        0x00000262:    5bf7        .[      LDRH     r7,[r6,r7]
        0x00000264:    437d        }C      MULS     r5,r7,r5
        0x00000266:    2700        .'      MOVS     r7,#0
        0x00000268:    18aa        ..      ADDS     r2,r5,r2
        0x0000026a:    417c        |A      ADCS     r4,r4,r7
        0x0000026c:    1c49        I.      ADDS     r1,r1,#1
        0x0000026e:    1e5b        [.      SUBS     r3,r3,#1
        0x00000270:    4561        aE      CMP      r1,r12
        0x00000272:    ddf2        ..      BLE      0x25a ; __aeabi_dmul + 130
        0x00000274:    0041        A.      LSLS     r1,r0,#1
        0x00000276:    ab04        ..      ADD      r3,sp,#0x10
        0x00000278:    525a        ZR      STRH     r2,[r3,r1]
        0x0000027a:    0421        !.      LSLS     r1,r4,#16
        0x0000027c:    0c12        ..      LSRS     r2,r2,#16
        0x0000027e:    430a        .C      ORRS     r2,r2,r1
        0x00000280:    0c24        $.      LSRS     r4,r4,#16
        0x00000282:    1c40        @.      ADDS     r0,r0,#1
        0x00000284:    2808        .(      CMP      r0,#8
        0x00000286:    dbdf        ..      BLT      0x248 ; __aeabi_dmul + 112
        0x00000288:    9801        ..      LDR      r0,[sp,#4]
        0x0000028a:    9002        ..      STR      r0,[sp,#8]
        0x0000028c:    9900        ..      LDR      r1,[sp,#0]
        0x0000028e:    4670        pF      MOV      r0,lr
        0x00000290:    9101        ..      STR      r1,[sp,#4]
        0x00000292:    9000        ..      STR      r0,[sp,#0]
        0x00000294:    9b05        ..      LDR      r3,[sp,#0x14]
        0x00000296:    9a04        ..      LDR      r2,[sp,#0x10]
        0x00000298:    9907        ..      LDR      r1,[sp,#0x1c]
        0x0000029a:    9806        ..      LDR      r0,[sp,#0x18]
        0x0000029c:    f000f8bd    ....    BL       _double_epilogue ; 0x41a
        0x000002a0:    e7d0        ..      B        0x244 ; __aeabi_dmul + 108
    $d
        0x000002a2:    0000        ..      DCW    0
        0x000002a4:    fffffc0d    ....    DCD    4294966285
    $t
    .text
    __aeabi_i2f
        0x000002a8:    17c2        ..      ASRS     r2,r0,#31
        0x000002aa:    0fc1        ..      LSRS     r1,r0,#31
        0x000002ac:    4050        P@      EORS     r0,r0,r2
        0x000002ae:    b510        ..      PUSH     {r4,lr}
        0x000002b0:    1840        @.      ADDS     r0,r0,r1
        0x000002b2:    07ca        ..      LSLS     r2,r1,#31
        0x000002b4:    2396        .#      MOVS     r3,#0x96
        0x000002b6:    2100        .!      MOVS     r1,#0
        0x000002b8:    f000f869    ..i.    BL       _float_epilogue ; 0x38e
        0x000002bc:    bd10        ..      POP      {r4,pc}
    .text
    __aeabi_f2d
        0x000002be:    0fc2        ..      LSRS     r2,r0,#31
        0x000002c0:    07d2        ..      LSLS     r2,r2,#31
        0x000002c2:    0040        @.      LSLS     r0,r0,#1
        0x000002c4:    0840        @.      LSRS     r0,r0,#1
        0x000002c6:    d00b        ..      BEQ      0x2e0 ; __aeabi_f2d + 34
        0x000002c8:    0dc1        ..      LSRS     r1,r0,#23
        0x000002ca:    2307        .#      MOVS     r3,#7
        0x000002cc:    01db        ..      LSLS     r3,r3,#7
        0x000002ce:    18c9        ..      ADDS     r1,r1,r3
        0x000002d0:    0240        @.      LSLS     r0,r0,#9
        0x000002d2:    0509        ..      LSLS     r1,r1,#20
        0x000002d4:    0a40        @.      LSRS     r0,r0,#9
        0x000002d6:    4311        .C      ORRS     r1,r1,r2
        0x000002d8:    08c2        ..      LSRS     r2,r0,#3
        0x000002da:    0740        @.      LSLS     r0,r0,#29
        0x000002dc:    4311        .C      ORRS     r1,r1,r2
        0x000002de:    4770        pG      BX       lr
        0x000002e0:    2000        .       MOVS     r0,#0
        0x000002e2:    4601        .F      MOV      r1,r0
        0x000002e4:    4770        pG      BX       lr
    .text
    __aeabi_d2f
        0x000002e6:    0fcb        ..      LSRS     r3,r1,#31
        0x000002e8:    07db        ..      LSLS     r3,r3,#31
        0x000002ea:    0049        I.      LSLS     r1,r1,#1
        0x000002ec:    b510        ..      PUSH     {r4,lr}
        0x000002ee:    0849        I.      LSRS     r1,r1,#1
        0x000002f0:    4602        .F      MOV      r2,r0
        0x000002f2:    430a        .C      ORRS     r2,r2,r1
        0x000002f4:    d007        ..      BEQ      0x306 ; __aeabi_d2f + 32
        0x000002f6:    0d0a        ..      LSRS     r2,r1,#20
        0x000002f8:    2407        .$      MOVS     r4,#7
        0x000002fa:    0309        ..      LSLS     r1,r1,#12
        0x000002fc:    01e4        ..      LSLS     r4,r4,#7
        0x000002fe:    0b09        ..      LSRS     r1,r1,#12
        0x00000300:    1b12        ..      SUBS     r2,r2,r4
        0x00000302:    2a00        .*      CMP      r2,#0
        0x00000304:    dc01        ..      BGT      0x30a ; __aeabi_d2f + 36
        0x00000306:    2000        .       MOVS     r0,#0
        0x00000308:    bd10        ..      POP      {r4,pc}
        0x0000030a:    00c9        ..      LSLS     r1,r1,#3
        0x0000030c:    0f44        D.      LSRS     r4,r0,#29
        0x0000030e:    430c        .C      ORRS     r4,r4,r1
        0x00000310:    00c1        ..      LSLS     r1,r0,#3
        0x00000312:    18e0        ..      ADDS     r0,r4,r3
        0x00000314:    05d2        ..      LSLS     r2,r2,#23
        0x00000316:    1880        ..      ADDS     r0,r0,r2
        0x00000318:    f000f831    ..1.    BL       __I$use$fp ; 0x37e
        0x0000031c:    bd10        ..      POP      {r4,pc}
    .text
    __aeabi_uldivmod
        0x0000031e:    b5f0        ..      PUSH     {r4-r7,lr}
        0x00000320:    b41f        ..      PUSH     {r0-r4}
        0x00000322:    4606        .F      MOV      r6,r0
        0x00000324:    2000        .       MOVS     r0,#0
        0x00000326:    b082        ..      SUB      sp,sp,#8
        0x00000328:    4605        .F      MOV      r5,r0
        0x0000032a:    2440        @$      MOVS     r4,#0x40
        0x0000032c:    9101        ..      STR      r1,[sp,#4]
        0x0000032e:    9000        ..      STR      r0,[sp,#0]
        0x00000330:    e01b        ..      B        0x36a ; __aeabi_uldivmod + 76
        0x00000332:    9901        ..      LDR      r1,[sp,#4]
        0x00000334:    4622        "F      MOV      r2,r4
        0x00000336:    460f        .F      MOV      r7,r1
        0x00000338:    4630        0F      MOV      r0,r6
        0x0000033a:    f000fa66    ..f.    BL       __aeabi_llsr ; 0x80a
        0x0000033e:    9a04        ..      LDR      r2,[sp,#0x10]
        0x00000340:    9b05        ..      LDR      r3,[sp,#0x14]
        0x00000342:    1a80        ..      SUBS     r0,r0,r2
        0x00000344:    4199        .A      SBCS     r1,r1,r3
        0x00000346:    d310        ..      BCC      0x36a ; __aeabi_uldivmod + 76
        0x00000348:    4610        .F      MOV      r0,r2
        0x0000034a:    4619        .F      MOV      r1,r3
        0x0000034c:    4622        "F      MOV      r2,r4
        0x0000034e:    f000fa4c    ..L.    BL       __aeabi_llsl ; 0x7ea
        0x00000352:    1a36        6.      SUBS     r6,r6,r0
        0x00000354:    418f        .A      SBCS     r7,r7,r1
        0x00000356:    9701        ..      STR      r7,[sp,#4]
        0x00000358:    4622        "F      MOV      r2,r4
        0x0000035a:    2001        .       MOVS     r0,#1
        0x0000035c:    2100        .!      MOVS     r1,#0
        0x0000035e:    9f00        ..      LDR      r7,[sp,#0]
        0x00000360:    f000fa43    ..C.    BL       __aeabi_llsl ; 0x7ea
        0x00000364:    1838        8.      ADDS     r0,r7,r0
        0x00000366:    414d        MA      ADCS     r5,r5,r1
        0x00000368:    9000        ..      STR      r0,[sp,#0]
        0x0000036a:    4620         F      MOV      r0,r4
        0x0000036c:    1e64        d.      SUBS     r4,r4,#1
        0x0000036e:    2800        .(      CMP      r0,#0
        0x00000370:    dcdf        ..      BGT      0x332 ; __aeabi_uldivmod + 20
        0x00000372:    9b01        ..      LDR      r3,[sp,#4]
        0x00000374:    9800        ..      LDR      r0,[sp,#0]
        0x00000376:    4629        )F      MOV      r1,r5
        0x00000378:    4632        2F      MOV      r2,r6
        0x0000037a:    b007        ..      ADD      sp,sp,#0x1c
        0x0000037c:    bdf0        ..      POP      {r4-r7,pc}
    .text
    .text
    __I$use$fp
    _float_round
        0x0000037e:    2900        .)      CMP      r1,#0
        0x00000380:    da04        ..      BGE      0x38c ; __I$use$fp + 14
        0x00000382:    1c40        @.      ADDS     r0,r0,#1
        0x00000384:    0049        I.      LSLS     r1,r1,#1
        0x00000386:    d101        ..      BNE      0x38c ; __I$use$fp + 14
        0x00000388:    0840        @.      LSRS     r0,r0,#1
        0x0000038a:    0040        @.      LSLS     r0,r0,#1
        0x0000038c:    4770        pG      BX       lr
    _float_epilogue
        0x0000038e:    b470        p.      PUSH     {r4-r6}
        0x00000390:    2400        .$      MOVS     r4,#0
        0x00000392:    0c05        ..      LSRS     r5,r0,#16
        0x00000394:    d105        ..      BNE      0x3a2 ; _float_epilogue + 20
        0x00000396:    2410        .$      MOVS     r4,#0x10
        0x00000398:    0400        ..      LSLS     r0,r0,#16
        0x0000039a:    d102        ..      BNE      0x3a2 ; _float_epilogue + 20
        0x0000039c:    2900        .)      CMP      r1,#0
        0x0000039e:    d021        !.      BEQ      0x3e4 ; _float_epilogue + 86
        0x000003a0:    2411        .$      MOVS     r4,#0x11
        0x000003a2:    0e05        ..      LSRS     r5,r0,#24
        0x000003a4:    d101        ..      BNE      0x3aa ; _float_epilogue + 28
        0x000003a6:    0200        ..      LSLS     r0,r0,#8
        0x000003a8:    3408        .4      ADDS     r4,r4,#8
        0x000003aa:    0f05        ..      LSRS     r5,r0,#28
        0x000003ac:    d101        ..      BNE      0x3b2 ; _float_epilogue + 36
        0x000003ae:    0100        ..      LSLS     r0,r0,#4
        0x000003b0:    1d24        $.      ADDS     r4,r4,#4
        0x000003b2:    0f85        ..      LSRS     r5,r0,#30
        0x000003b4:    d101        ..      BNE      0x3ba ; _float_epilogue + 44
        0x000003b6:    0080        ..      LSLS     r0,r0,#2
        0x000003b8:    1ca4        ..      ADDS     r4,r4,#2
        0x000003ba:    2800        .(      CMP      r0,#0
        0x000003bc:    db01        ..      BLT      0x3c2 ; _float_epilogue + 52
        0x000003be:    0040        @.      LSLS     r0,r0,#1
        0x000003c0:    1c64        d.      ADDS     r4,r4,#1
        0x000003c2:    2900        .)      CMP      r1,#0
        0x000003c4:    d008        ..      BEQ      0x3d8 ; _float_epilogue + 74
        0x000003c6:    2520         %      MOVS     r5,#0x20
        0x000003c8:    1b2e        ..      SUBS     r6,r5,r4
        0x000003ca:    460d        .F      MOV      r5,r1
        0x000003cc:    40f5        .@      LSRS     r5,r5,r6
        0x000003ce:    40a1        .@      LSLS     r1,r1,r4
        0x000003d0:    d000        ..      BEQ      0x3d4 ; _float_epilogue + 70
        0x000003d2:    2101        .!      MOVS     r1,#1
        0x000003d4:    4329        )C      ORRS     r1,r1,r5
        0x000003d6:    4308        .C      ORRS     r0,r0,r1
        0x000003d8:    0601        ..      LSLS     r1,r0,#24
        0x000003da:    1b1b        ..      SUBS     r3,r3,r4
        0x000003dc:    0a00        ..      LSRS     r0,r0,#8
        0x000003de:    1ddb        ..      ADDS     r3,r3,#7
        0x000003e0:    d502        ..      BPL      0x3e8 ; _float_epilogue + 90
        0x000003e2:    2000        .       MOVS     r0,#0
        0x000003e4:    bc70        p.      POP      {r4-r6}
        0x000003e6:    4770        pG      BX       lr
        0x000003e8:    05db        ..      LSLS     r3,r3,#23
        0x000003ea:    1818        ..      ADDS     r0,r3,r0
        0x000003ec:    1880        ..      ADDS     r0,r0,r2
        0x000003ee:    2900        .)      CMP      r1,#0
        0x000003f0:    daf8        ..      BGE      0x3e4 ; _float_epilogue + 86
        0x000003f2:    1c40        @.      ADDS     r0,r0,#1
        0x000003f4:    0049        I.      LSLS     r1,r1,#1
        0x000003f6:    d1f5        ..      BNE      0x3e4 ; _float_epilogue + 86
        0x000003f8:    bc70        p.      POP      {r4-r6}
        0x000003fa:    0840        @.      LSRS     r0,r0,#1
        0x000003fc:    0040        @.      LSLS     r0,r0,#1
        0x000003fe:    4770        pG      BX       lr
    .text
    _double_round
        0x00000400:    b510        ..      PUSH     {r4,lr}
        0x00000402:    2b00        .+      CMP      r3,#0
        0x00000404:    da08        ..      BGE      0x418 ; _double_round + 24
        0x00000406:    2400        .$      MOVS     r4,#0
        0x00000408:    1c40        @.      ADDS     r0,r0,#1
        0x0000040a:    4161        aA      ADCS     r1,r1,r4
        0x0000040c:    1892        ..      ADDS     r2,r2,r2
        0x0000040e:    415b        [A      ADCS     r3,r3,r3
        0x00000410:    431a        .C      ORRS     r2,r2,r3
        0x00000412:    d101        ..      BNE      0x418 ; _double_round + 24
        0x00000414:    0840        @.      LSRS     r0,r0,#1
        0x00000416:    0040        @.      LSLS     r0,r0,#1
        0x00000418:    bd10        ..      POP      {r4,pc}
    _double_epilogue
        0x0000041a:    b5f0        ..      PUSH     {r4-r7,lr}
        0x0000041c:    b41f        ..      PUSH     {r0-r4}
        0x0000041e:    b082        ..      SUB      sp,sp,#8
        0x00000420:    4605        .F      MOV      r5,r0
        0x00000422:    000c        ..      MOVS     r4,r1
        0x00000424:    d003        ..      BEQ      0x42e ; _double_epilogue + 20
        0x00000426:    4608        .F      MOV      r0,r1
        0x00000428:    f001fc3e    ..>.    BL       __ARM_clz ; 0x1ca8
        0x0000042c:    e002        ..      B        0x434 ; _double_epilogue + 26
        0x0000042e:    f001fc3b    ..;.    BL       __ARM_clz ; 0x1ca8
        0x00000432:    3020         0      ADDS     r0,r0,#0x20
        0x00000434:    4602        .F      MOV      r2,r0
        0x00000436:    9000        ..      STR      r0,[sp,#0]
        0x00000438:    4621        !F      MOV      r1,r4
        0x0000043a:    4628        (F      MOV      r0,r5
        0x0000043c:    f000f9d5    ....    BL       __aeabi_llsl ; 0x7ea
        0x00000440:    9b04        ..      LDR      r3,[sp,#0x10]
        0x00000442:    9a05        ..      LDR      r2,[sp,#0x14]
        0x00000444:    4604        .F      MOV      r4,r0
        0x00000446:    460f        .F      MOV      r7,r1
        0x00000448:    4318        .C      ORRS     r0,r0,r3
        0x0000044a:    4311        .C      ORRS     r1,r1,r2
        0x0000044c:    4308        .C      ORRS     r0,r0,r1
        0x0000044e:    d014        ..      BEQ      0x47a ; _double_epilogue + 96
        0x00000450:    4618        .F      MOV      r0,r3
        0x00000452:    4310        .C      ORRS     r0,r0,r2
        0x00000454:    d01b        ..      BEQ      0x48e ; _double_epilogue + 116
        0x00000456:    9800        ..      LDR      r0,[sp,#0]
        0x00000458:    2140        @!      MOVS     r1,#0x40
        0x0000045a:    1a0a        ..      SUBS     r2,r1,r0
        0x0000045c:    4618        .F      MOV      r0,r3
        0x0000045e:    9905        ..      LDR      r1,[sp,#0x14]
        0x00000460:    f000f9d3    ....    BL       __aeabi_llsr ; 0x80a
        0x00000464:    4605        .F      MOV      r5,r0
        0x00000466:    460e        .F      MOV      r6,r1
        0x00000468:    9a00        ..      LDR      r2,[sp,#0]
        0x0000046a:    9905        ..      LDR      r1,[sp,#0x14]
        0x0000046c:    9804        ..      LDR      r0,[sp,#0x10]
        0x0000046e:    f000f9bc    ....    BL       __aeabi_llsl ; 0x7ea
        0x00000472:    4308        .C      ORRS     r0,r0,r1
        0x00000474:    d005        ..      BEQ      0x482 ; _double_epilogue + 104
        0x00000476:    2001        .       MOVS     r0,#1
        0x00000478:    e004        ..      B        0x484 ; _double_epilogue + 106
        0x0000047a:    4620         F      MOV      r0,r4
        0x0000047c:    4639        9F      MOV      r1,r7
        0x0000047e:    b007        ..      ADD      sp,sp,#0x1c
        0x00000480:    bdf0        ..      POP      {r4-r7,pc}
        0x00000482:    2000        .       MOVS     r0,#0
        0x00000484:    17c1        ..      ASRS     r1,r0,#31
        0x00000486:    4305        .C      ORRS     r5,r5,r0
        0x00000488:    430e        .C      ORRS     r6,r6,r1
        0x0000048a:    432c        ,C      ORRS     r4,r4,r5
        0x0000048c:    4337        7C      ORRS     r7,r7,r6
        0x0000048e:    9900        ..      LDR      r1,[sp,#0]
        0x00000490:    980e        ..      LDR      r0,[sp,#0x38]
        0x00000492:    0563        c.      LSLS     r3,r4,#21
        0x00000494:    1a40        @.      SUBS     r0,r0,r1
        0x00000496:    0579        y.      LSLS     r1,r7,#21
        0x00000498:    0ae4        ..      LSRS     r4,r4,#11
        0x0000049a:    2200        ."      MOVS     r2,#0
        0x0000049c:    430c        .C      ORRS     r4,r4,r1
        0x0000049e:    0afd        ..      LSRS     r5,r7,#11
        0x000004a0:    300a        .0      ADDS     r0,r0,#0xa
        0x000004a2:    d502        ..      BPL      0x4aa ; _double_epilogue + 144
        0x000004a4:    2000        .       MOVS     r0,#0
        0x000004a6:    4601        .F      MOV      r1,r0
        0x000004a8:    e7e9        ..      B        0x47e ; _double_epilogue + 100
        0x000004aa:    0501        ..      LSLS     r1,r0,#20
        0x000004ac:    1910        ..      ADDS     r0,r2,r4
        0x000004ae:    4169        iA      ADCS     r1,r1,r5
        0x000004b0:    9c0c        ..      LDR      r4,[sp,#0x30]
        0x000004b2:    9d0d        ..      LDR      r5,[sp,#0x34]
        0x000004b4:    1900        ..      ADDS     r0,r0,r4
        0x000004b6:    4169        iA      ADCS     r1,r1,r5
        0x000004b8:    f7ffffa2    ....    BL       _double_round ; 0x400
        0x000004bc:    e7df        ..      B        0x47e ; _double_epilogue + 100
        0x000004be:    0000        ..      MOVS     r0,r0
    .text
    __aeabi_dadd
        0x000004c0:    b5f0        ..      PUSH     {r4-r7,lr}
        0x000004c2:    4607        .F      MOV      r7,r0
        0x000004c4:    4608        .F      MOV      r0,r1
        0x000004c6:    4058        X@      EORS     r0,r0,r3
        0x000004c8:    b087        ..      SUB      sp,sp,#0x1c
        0x000004ca:    0fc0        ..      LSRS     r0,r0,#31
        0x000004cc:    9004        ..      STR      r0,[sp,#0x10]
        0x000004ce:    0048        H.      LSLS     r0,r1,#1
        0x000004d0:    460e        .F      MOV      r6,r1
        0x000004d2:    0059        Y.      LSLS     r1,r3,#1
        0x000004d4:    0840        @.      LSRS     r0,r0,#1
        0x000004d6:    0849        I.      LSRS     r1,r1,#1
        0x000004d8:    1abc        ..      SUBS     r4,r7,r2
        0x000004da:    4188        .A      SBCS     r0,r0,r1
        0x000004dc:    d205        ..      BCS      0x4ea ; __aeabi_dadd + 42
        0x000004de:    4638        8F      MOV      r0,r7
        0x000004e0:    4631        1F      MOV      r1,r6
        0x000004e2:    461e        .F      MOV      r6,r3
        0x000004e4:    4617        .F      MOV      r7,r2
        0x000004e6:    460b        .F      MOV      r3,r1
        0x000004e8:    4602        .F      MOV      r2,r0
        0x000004ea:    0058        X.      LSLS     r0,r3,#1
        0x000004ec:    0840        @.      LSRS     r0,r0,#1
        0x000004ee:    4310        .C      ORRS     r0,r0,r2
        0x000004f0:    d04c        L.      BEQ      0x58c ; __aeabi_dadd + 204
        0x000004f2:    0d30        0.      LSRS     r0,r6,#20
        0x000004f4:    9003        ..      STR      r0,[sp,#0xc]
        0x000004f6:    0540        @.      LSLS     r0,r0,#21
        0x000004f8:    0059        Y.      LSLS     r1,r3,#1
        0x000004fa:    0d40        @.      LSRS     r0,r0,#21
        0x000004fc:    0d49        I.      LSRS     r1,r1,#21
        0x000004fe:    9005        ..      STR      r0,[sp,#0x14]
        0x00000500:    1a40        @.      SUBS     r0,r0,r1
        0x00000502:    9002        ..      STR      r0,[sp,#8]
        0x00000504:    2840        @(      CMP      r0,#0x40
        0x00000506:    da72        r.      BGE      0x5ee ; __aeabi_dadd + 302
        0x00000508:    0318        ..      LSLS     r0,r3,#12
        0x0000050a:    2101        .!      MOVS     r1,#1
        0x0000050c:    0b00        ..      LSRS     r0,r0,#12
        0x0000050e:    0509        ..      LSLS     r1,r1,#20
        0x00000510:    4308        .C      ORRS     r0,r0,r1
        0x00000512:    9001        ..      STR      r0,[sp,#4]
        0x00000514:    9804        ..      LDR      r0,[sp,#0x10]
        0x00000516:    9200        ..      STR      r2,[sp,#0]
        0x00000518:    2800        .(      CMP      r0,#0
        0x0000051a:    d005        ..      BEQ      0x528 ; __aeabi_dadd + 104
        0x0000051c:    9901        ..      LDR      r1,[sp,#4]
        0x0000051e:    4252        RB      RSBS     r2,r2,#0
        0x00000520:    2000        .       MOVS     r0,#0
        0x00000522:    4188        .A      SBCS     r0,r0,r1
        0x00000524:    9200        ..      STR      r2,[sp,#0]
        0x00000526:    9001        ..      STR      r0,[sp,#4]
        0x00000528:    9802        ..      LDR      r0,[sp,#8]
        0x0000052a:    2140        @!      MOVS     r1,#0x40
        0x0000052c:    1a0a        ..      SUBS     r2,r1,r0
        0x0000052e:    9901        ..      LDR      r1,[sp,#4]
        0x00000530:    9800        ..      LDR      r0,[sp,#0]
        0x00000532:    f000f95a    ..Z.    BL       __aeabi_llsl ; 0x7ea
        0x00000536:    4605        .F      MOV      r5,r0
        0x00000538:    460c        .F      MOV      r4,r1
        0x0000053a:    466b        kF      MOV      r3,sp
        0x0000053c:    cb07        ..      LDM      r3!,{r0-r2}
        0x0000053e:    f000f975    ..u.    BL       __aeabi_lasr ; 0x82c
        0x00000542:    19c0        ..      ADDS     r0,r0,r7
        0x00000544:    4171        qA      ADCS     r1,r1,r6
        0x00000546:    9a03        ..      LDR      r2,[sp,#0xc]
        0x00000548:    0d0e        ..      LSRS     r6,r1,#20
        0x0000054a:    2300        .#      MOVS     r3,#0
        0x0000054c:    17d7        ..      ASRS     r7,r2,#31
        0x0000054e:    4056        V@      EORS     r6,r6,r2
        0x00000550:    461a        .F      MOV      r2,r3
        0x00000552:    407a        z@      EORS     r2,r2,r7
        0x00000554:    4316        .C      ORRS     r6,r6,r2
        0x00000556:    d044        D.      BEQ      0x5e2 ; __aeabi_dadd + 290
        0x00000558:    9a04        ..      LDR      r2,[sp,#0x10]
        0x0000055a:    2a00        .*      CMP      r2,#0
        0x0000055c:    d02d        -.      BEQ      0x5ba ; __aeabi_dadd + 250
        0x0000055e:    9a02        ..      LDR      r2,[sp,#8]
        0x00000560:    2a01        .*      CMP      r2,#1
        0x00000562:    9a03        ..      LDR      r2,[sp,#0xc]
        0x00000564:    dc15        ..      BGT      0x592 ; __aeabi_dadd + 210
        0x00000566:    0512        ..      LSLS     r2,r2,#20
        0x00000568:    1ac0        ..      SUBS     r0,r0,r3
        0x0000056a:    4191        .A      SBCS     r1,r1,r2
        0x0000056c:    2601        .&      MOVS     r6,#1
        0x0000056e:    0536        6.      LSLS     r6,r6,#20
        0x00000570:    1c00        ..      ADDS     r0,r0,#0
        0x00000572:    4171        qA      ADCS     r1,r1,r6
        0x00000574:    0fd2        ..      LSRS     r2,r2,#31
        0x00000576:    9e05        ..      LDR      r6,[sp,#0x14]
        0x00000578:    07d2        ..      LSLS     r2,r2,#31
        0x0000057a:    9300        ..      STR      r3,[sp,#0]
        0x0000057c:    9201        ..      STR      r2,[sp,#4]
        0x0000057e:    9602        ..      STR      r6,[sp,#8]
        0x00000580:    462a        *F      MOV      r2,r5
        0x00000582:    4623        #F      MOV      r3,r4
        0x00000584:    f7ffff49    ..I.    BL       _double_epilogue ; 0x41a
        0x00000588:    b007        ..      ADD      sp,sp,#0x1c
        0x0000058a:    bdf0        ..      POP      {r4-r7,pc}
        0x0000058c:    4638        8F      MOV      r0,r7
        0x0000058e:    4631        1F      MOV      r1,r6
        0x00000590:    e7fa        ..      B        0x588 ; __aeabi_dadd + 200
        0x00000592:    0516        ..      LSLS     r6,r2,#20
        0x00000594:    4a22        "J      LDR      r2,[pc,#136] ; [0x620] = 0xffe00000
        0x00000596:    460f        .F      MOV      r7,r1
        0x00000598:    18b2        ..      ADDS     r2,r6,r2
        0x0000059a:    1ac0        ..      SUBS     r0,r0,r3
        0x0000059c:    41b7        .A      SBCS     r7,r7,r6
        0x0000059e:    2101        .!      MOVS     r1,#1
        0x000005a0:    0509        ..      LSLS     r1,r1,#20
        0x000005a2:    1c00        ..      ADDS     r0,r0,#0
        0x000005a4:    414f        OA      ADCS     r7,r7,r1
        0x000005a6:    1800        ..      ADDS     r0,r0,r0
        0x000005a8:    417f        .A      ADCS     r7,r7,r7
        0x000005aa:    4611        .F      MOV      r1,r2
        0x000005ac:    1818        ..      ADDS     r0,r3,r0
        0x000005ae:    4179        yA      ADCS     r1,r1,r7
        0x000005b0:    0fe2        ..      LSRS     r2,r4,#31
        0x000005b2:    4310        .C      ORRS     r0,r0,r2
        0x000005b4:    196d        m.      ADDS     r5,r5,r5
        0x000005b6:    4164        dA      ADCS     r4,r4,r4
        0x000005b8:    e013        ..      B        0x5e2 ; __aeabi_dadd + 290
        0x000005ba:    07e2        ..      LSLS     r2,r4,#31
        0x000005bc:    086d        m.      LSRS     r5,r5,#1
        0x000005be:    4315        .C      ORRS     r5,r5,r2
        0x000005c0:    0864        d.      LSRS     r4,r4,#1
        0x000005c2:    07c2        ..      LSLS     r2,r0,#31
        0x000005c4:    4314        .C      ORRS     r4,r4,r2
        0x000005c6:    9a03        ..      LDR      r2,[sp,#0xc]
        0x000005c8:    2601        .&      MOVS     r6,#1
        0x000005ca:    0512        ..      LSLS     r2,r2,#20
        0x000005cc:    1ac0        ..      SUBS     r0,r0,r3
        0x000005ce:    4191        .A      SBCS     r1,r1,r2
        0x000005d0:    0536        6.      LSLS     r6,r6,#20
        0x000005d2:    1c00        ..      ADDS     r0,r0,#0
        0x000005d4:    4171        qA      ADCS     r1,r1,r6
        0x000005d6:    07ce        ..      LSLS     r6,r1,#31
        0x000005d8:    0840        @.      LSRS     r0,r0,#1
        0x000005da:    4330        0C      ORRS     r0,r0,r6
        0x000005dc:    0849        I.      LSRS     r1,r1,#1
        0x000005de:    18c0        ..      ADDS     r0,r0,r3
        0x000005e0:    4151        QA      ADCS     r1,r1,r2
        0x000005e2:    462a        *F      MOV      r2,r5
        0x000005e4:    4623        #F      MOV      r3,r4
        0x000005e6:    f7ffff0b    ....    BL       _double_round ; 0x400
        0x000005ea:    e7cd        ..      B        0x588 ; __aeabi_dadd + 200
        0x000005ec:    e7ff        ..      B        0x5ee ; __aeabi_dadd + 302
        0x000005ee:    9804        ..      LDR      r0,[sp,#0x10]
        0x000005f0:    2201        ."      MOVS     r2,#1
        0x000005f2:    0040        @.      LSLS     r0,r0,#1
        0x000005f4:    17c1        ..      ASRS     r1,r0,#31
        0x000005f6:    1a12        ..      SUBS     r2,r2,r0
        0x000005f8:    2300        .#      MOVS     r3,#0
        0x000005fa:    418b        .A      SBCS     r3,r3,r1
        0x000005fc:    9804        ..      LDR      r0,[sp,#0x10]
        0x000005fe:    4631        1F      MOV      r1,r6
        0x00000600:    17c4        ..      ASRS     r4,r0,#31
        0x00000602:    1a38        8.      SUBS     r0,r7,r0
        0x00000604:    41a1        .A      SBCS     r1,r1,r4
        0x00000606:    e7ee        ..      B        0x5e6 ; __aeabi_dadd + 294
    __aeabi_dsub
        0x00000608:    b430        0.      PUSH     {r4,r5}
        0x0000060a:    2401        .$      MOVS     r4,#1
        0x0000060c:    07e4        ..      LSLS     r4,r4,#31
        0x0000060e:    4063        c@      EORS     r3,r3,r4
        0x00000610:    bc30        0.      POP      {r4,r5}
        0x00000612:    e755        U.      B        __aeabi_dadd ; 0x4c0
    __aeabi_drsub
        0x00000614:    b430        0.      PUSH     {r4,r5}
        0x00000616:    2401        .$      MOVS     r4,#1
        0x00000618:    07e4        ..      LSLS     r4,r4,#31
        0x0000061a:    4061        a@      EORS     r1,r1,r4
        0x0000061c:    bc30        0.      POP      {r4,r5}
        0x0000061e:    e74f        O.      B        __aeabi_dadd ; 0x4c0
    $d
        0x00000620:    ffe00000    ....    DCD    4292870144
    $t
    .text
    __aeabi_ddiv
        0x00000624:    b5f0        ..      PUSH     {r4-r7,lr}
        0x00000626:    460c        .F      MOV      r4,r1
        0x00000628:    405c        \@      EORS     r4,r4,r3
        0x0000062a:    b085        ..      SUB      sp,sp,#0x14
        0x0000062c:    0fe4        ..      LSRS     r4,r4,#31
        0x0000062e:    07e4        ..      LSLS     r4,r4,#31
        0x00000630:    9403        ..      STR      r4,[sp,#0xc]
        0x00000632:    004c        L.      LSLS     r4,r1,#1
        0x00000634:    2600        .&      MOVS     r6,#0
        0x00000636:    0864        d.      LSRS     r4,r4,#1
        0x00000638:    0059        Y.      LSLS     r1,r3,#1
        0x0000063a:    4694        .F      MOV      r12,r2
        0x0000063c:    0849        I.      LSRS     r1,r1,#1
        0x0000063e:    4602        .F      MOV      r2,r0
        0x00000640:    9602        ..      STR      r6,[sp,#8]
        0x00000642:    4322        "C      ORRS     r2,r2,r4
        0x00000644:    d021        !.      BEQ      0x68a ; __aeabi_ddiv + 102
        0x00000646:    4662        bF      MOV      r2,r12
        0x00000648:    430a        .C      ORRS     r2,r2,r1
        0x0000064a:    d01e        ..      BEQ      0x68a ; __aeabi_ddiv + 102
        0x0000064c:    0062        b.      LSLS     r2,r4,#1
        0x0000064e:    0d57        W.      LSRS     r7,r2,#21
        0x00000650:    004a        J.      LSLS     r2,r1,#1
        0x00000652:    030e        ..      LSLS     r6,r1,#12
        0x00000654:    0323        #.      LSLS     r3,r4,#12
        0x00000656:    0d55        U.      LSRS     r5,r2,#21
        0x00000658:    2401        .$      MOVS     r4,#1
        0x0000065a:    4602        .F      MOV      r2,r0
        0x0000065c:    492c        ,I      LDR      r1,[pc,#176] ; [0x710] = 0x3fd
        0x0000065e:    0524        $.      LSLS     r4,r4,#20
        0x00000660:    1b78        x.      SUBS     r0,r7,r5
        0x00000662:    0b1b        ..      LSRS     r3,r3,#12
        0x00000664:    0b36        6.      LSRS     r6,r6,#12
        0x00000666:    1840        @.      ADDS     r0,r0,r1
        0x00000668:    4323        #C      ORRS     r3,r3,r4
        0x0000066a:    4326        &C      ORRS     r6,r6,r4
        0x0000066c:    4661        aF      MOV      r1,r12
        0x0000066e:    9000        ..      STR      r0,[sp,#0]
        0x00000670:    461c        .F      MOV      r4,r3
        0x00000672:    1a50        P.      SUBS     r0,r2,r1
        0x00000674:    41b4        .A      SBCS     r4,r4,r6
        0x00000676:    d303        ..      BCC      0x680 ; __aeabi_ddiv + 92
        0x00000678:    9800        ..      LDR      r0,[sp,#0]
        0x0000067a:    1c40        @.      ADDS     r0,r0,#1
        0x0000067c:    9000        ..      STR      r0,[sp,#0]
        0x0000067e:    e002        ..      B        0x686 ; __aeabi_ddiv + 98
        0x00000680:    1892        ..      ADDS     r2,r2,r2
        0x00000682:    9800        ..      LDR      r0,[sp,#0]
        0x00000684:    415b        [A      ADCS     r3,r3,r3
        0x00000686:    2800        .(      CMP      r0,#0
        0x00000688:    da03        ..      BGE      0x692 ; __aeabi_ddiv + 110
        0x0000068a:    2000        .       MOVS     r0,#0
        0x0000068c:    4601        .F      MOV      r1,r0
        0x0000068e:    b005        ..      ADD      sp,sp,#0x14
        0x00000690:    bdf0        ..      POP      {r4-r7,pc}
        0x00000692:    2000        .       MOVS     r0,#0
        0x00000694:    2101        .!      MOVS     r1,#1
        0x00000696:    0509        ..      LSLS     r1,r1,#20
        0x00000698:    4607        .F      MOV      r7,r0
        0x0000069a:    4686        .F      MOV      lr,r0
        0x0000069c:    e011        ..      B        0x6c2 ; __aeabi_ddiv + 158
        0x0000069e:    4664        dF      MOV      r4,r12
        0x000006a0:    461d        .F      MOV      r5,r3
        0x000006a2:    1b14        ..      SUBS     r4,r2,r4
        0x000006a4:    41b5        .A      SBCS     r5,r5,r6
        0x000006a6:    d306        ..      BCC      0x6b6 ; __aeabi_ddiv + 146
        0x000006a8:    4665        eF      MOV      r5,r12
        0x000006aa:    1b52        R.      SUBS     r2,r2,r5
        0x000006ac:    41b3        .A      SBCS     r3,r3,r6
        0x000006ae:    4674        tF      MOV      r4,lr
        0x000006b0:    4307        .C      ORRS     r7,r7,r0
        0x000006b2:    430c        .C      ORRS     r4,r4,r1
        0x000006b4:    46a6        .F      MOV      lr,r4
        0x000006b6:    07cd        ..      LSLS     r5,r1,#31
        0x000006b8:    0840        @.      LSRS     r0,r0,#1
        0x000006ba:    0849        I.      LSRS     r1,r1,#1
        0x000006bc:    4328        (C      ORRS     r0,r0,r5
        0x000006be:    1892        ..      ADDS     r2,r2,r2
        0x000006c0:    415b        [A      ADCS     r3,r3,r3
        0x000006c2:    4605        .F      MOV      r5,r0
        0x000006c4:    430d        .C      ORRS     r5,r5,r1
        0x000006c6:    d1ea        ..      BNE      0x69e ; __aeabi_ddiv + 122
        0x000006c8:    4610        .F      MOV      r0,r2
        0x000006ca:    4318        .C      ORRS     r0,r0,r3
        0x000006cc:    d013        ..      BEQ      0x6f6 ; __aeabi_ddiv + 210
        0x000006ce:    4660        `F      MOV      r0,r12
        0x000006d0:    4619        .F      MOV      r1,r3
        0x000006d2:    4050        P@      EORS     r0,r0,r2
        0x000006d4:    4071        q@      EORS     r1,r1,r6
        0x000006d6:    4308        .C      ORRS     r0,r0,r1
        0x000006d8:    d006        ..      BEQ      0x6e8 ; __aeabi_ddiv + 196
        0x000006da:    4660        `F      MOV      r0,r12
        0x000006dc:    1a10        ..      SUBS     r0,r2,r0
        0x000006de:    41b3        .A      SBCS     r3,r3,r6
        0x000006e0:    d206        ..      BCS      0x6f0 ; __aeabi_ddiv + 204
        0x000006e2:    2201        ."      MOVS     r2,#1
        0x000006e4:    2300        .#      MOVS     r3,#0
        0x000006e6:    e006        ..      B        0x6f6 ; __aeabi_ddiv + 210
        0x000006e8:    2200        ."      MOVS     r2,#0
        0x000006ea:    2301        .#      MOVS     r3,#1
        0x000006ec:    07db        ..      LSLS     r3,r3,#31
        0x000006ee:    e002        ..      B        0x6f6 ; __aeabi_ddiv + 210
        0x000006f0:    2201        ."      MOVS     r2,#1
        0x000006f2:    43d2        .C      MVNS     r2,r2
        0x000006f4:    1053        S.      ASRS     r3,r2,#1
        0x000006f6:    9800        ..      LDR      r0,[sp,#0]
        0x000006f8:    4674        tF      MOV      r4,lr
        0x000006fa:    0501        ..      LSLS     r1,r0,#20
        0x000006fc:    1c38        8.      ADDS     r0,r7,#0
        0x000006fe:    4161        aA      ADCS     r1,r1,r4
        0x00000700:    9c02        ..      LDR      r4,[sp,#8]
        0x00000702:    9d03        ..      LDR      r5,[sp,#0xc]
        0x00000704:    1900        ..      ADDS     r0,r0,r4
        0x00000706:    4169        iA      ADCS     r1,r1,r5
        0x00000708:    f7fffe7a    ..z.    BL       _double_round ; 0x400
        0x0000070c:    e7bf        ..      B        0x68e ; __aeabi_ddiv + 106
    $d
        0x0000070e:    0000        ..      DCW    0
        0x00000710:    000003fd    ....    DCD    1021
    $t
    .text
    __aeabi_d2ulz
        0x00000714:    004a        J.      LSLS     r2,r1,#1
        0x00000716:    0309        ..      LSLS     r1,r1,#12
        0x00000718:    2301        .#      MOVS     r3,#1
        0x0000071a:    0b09        ..      LSRS     r1,r1,#12
        0x0000071c:    051b        ..      LSLS     r3,r3,#20
        0x0000071e:    4319        .C      ORRS     r1,r1,r3
        0x00000720:    4b0a        .K      LDR      r3,[pc,#40] ; [0x74c] = 0x3ff
        0x00000722:    b510        ..      PUSH     {r4,lr}
        0x00000724:    0d52        R.      LSRS     r2,r2,#21
        0x00000726:    429a        .B      CMP      r2,r3
        0x00000728:    da02        ..      BGE      0x730 ; __aeabi_d2ulz + 28
        0x0000072a:    2000        .       MOVS     r0,#0
        0x0000072c:    4601        .F      MOV      r1,r0
        0x0000072e:    bd10        ..      POP      {r4,pc}
        0x00000730:    4b06        .K      LDR      r3,[pc,#24] ; [0x74c] = 0x3ff
        0x00000732:    3334        43      ADDS     r3,r3,#0x34
        0x00000734:    429a        .B      CMP      r2,r3
        0x00000736:    dc03        ..      BGT      0x740 ; __aeabi_d2ulz + 44
        0x00000738:    1a9a        ..      SUBS     r2,r3,r2
        0x0000073a:    f000f866    ..f.    BL       __aeabi_llsr ; 0x80a
        0x0000073e:    bd10        ..      POP      {r4,pc}
        0x00000740:    4b03        .K      LDR      r3,[pc,#12] ; [0x750] = 0xfffffbcd
        0x00000742:    18d2        ..      ADDS     r2,r2,r3
        0x00000744:    f000f851    ..Q.    BL       __aeabi_llsl ; 0x7ea
        0x00000748:    bd10        ..      POP      {r4,pc}
    $d
        0x0000074a:    0000        ..      DCW    0
        0x0000074c:    000003ff    ....    DCD    1023
        0x00000750:    fffffbcd    ....    DCD    4294966221
    $t
    .text
    __aeabi_cdrcmple
        0x00000754:    b510        ..      PUSH     {r4,lr}
        0x00000756:    2900        .)      CMP      r1,#0
        0x00000758:    db04        ..      BLT      0x764 ; __aeabi_cdrcmple + 16
        0x0000075a:    2401        .$      MOVS     r4,#1
        0x0000075c:    07e4        ..      LSLS     r4,r4,#31
        0x0000075e:    4240        @B      RSBS     r0,r0,#0
        0x00000760:    418c        .A      SBCS     r4,r4,r1
        0x00000762:    4621        !F      MOV      r1,r4
        0x00000764:    2b00        .+      CMP      r3,#0
        0x00000766:    db04        ..      BLT      0x772 ; __aeabi_cdrcmple + 30
        0x00000768:    461c        .F      MOV      r4,r3
        0x0000076a:    2301        .#      MOVS     r3,#1
        0x0000076c:    07db        ..      LSLS     r3,r3,#31
        0x0000076e:    4252        RB      RSBS     r2,r2,#0
        0x00000770:    41a3        .A      SBCS     r3,r3,r4
        0x00000772:    4299        .B      CMP      r1,r3
        0x00000774:    d100        ..      BNE      0x778 ; __aeabi_cdrcmple + 36
        0x00000776:    4290        .B      CMP      r0,r2
        0x00000778:    bd10        ..      POP      {r4,pc}
    $d
        0x0000077a:    0000        ..      DCW    0
    $t
    .text
    __scatterload
    __scatterload_rt2
        0x0000077c:    b51c        ..      PUSH     {r2-r4,lr}
        0x0000077e:    4809        .H      LDR      r0,[pc,#36] ; [0x7a4] = 0x2618
        0x00000780:    9000        ..      STR      r0,[sp,#0]
        0x00000782:    4809        .H      LDR      r0,[pc,#36] ; [0x7a8] = 0x2638
        0x00000784:    9001        ..      STR      r0,[sp,#4]
        0x00000786:    4605        .F      MOV      r5,r0
        0x00000788:    2601        .&      MOVS     r6,#1
        0x0000078a:    9c00        ..      LDR      r4,[sp,#0]
        0x0000078c:    e005        ..      B        0x79a ; __scatterload + 30
        0x0000078e:    68e3        .h      LDR      r3,[r4,#0xc]
        0x00000790:    cc07        ..      LDM      r4!,{r0-r2}
        0x00000792:    4333        3C      ORRS     r3,r3,r6
        0x00000794:    3c0c        .<      SUBS     r4,r4,#0xc
        0x00000796:    4798        .G      BLX      r3
        0x00000798:    3410        .4      ADDS     r4,r4,#0x10
        0x0000079a:    42ac        .B      CMP      r4,r5
        0x0000079c:    d3f7        ..      BCC      0x78e ; __scatterload + 18
        0x0000079e:    f7fffcd3    ....    BL       __main_after_scatterload ; 0x148
    $d
        0x000007a2:    0000        ..      DCW    0
        0x000007a4:    00002618    .&..    DCD    9752
        0x000007a8:    00002638    8&..    DCD    9784
    $t
    .text
    __aeabi_uidiv$div0
    __aeabi_uidivmod
        0x000007ac:    b570        p.      PUSH     {r4-r6,lr}
        0x000007ae:    4604        .F      MOV      r4,r0
        0x000007b0:    2900        .)      CMP      r1,#0
        0x000007b2:    d003        ..      BEQ      0x7bc ; __aeabi_uidiv$div0 + 16
        0x000007b4:    2000        .       MOVS     r0,#0
        0x000007b6:    2220         "      MOVS     r2,#0x20
        0x000007b8:    2301        .#      MOVS     r3,#1
        0x000007ba:    e010        ..      B        0x7de ; __aeabi_uidiv$div0 + 50
        0x000007bc:    2800        .(      CMP      r0,#0
        0x000007be:    d001        ..      BEQ      0x7c4 ; __aeabi_uidiv$div0 + 24
        0x000007c0:    2000        .       MOVS     r0,#0
        0x000007c2:    43c0        .C      MVNS     r0,r0
        0x000007c4:    46c0        .F      MOV      r8,r8
        0x000007c6:    46c0        .F      MOV      r8,r8
        0x000007c8:    e00d        ..      B        0x7e6 ; __aeabi_uidiv$div0 + 58
        0x000007ca:    4625        %F      MOV      r5,r4
        0x000007cc:    40d5        .@      LSRS     r5,r5,r2
        0x000007ce:    428d        .B      CMP      r5,r1
        0x000007d0:    d305        ..      BCC      0x7de ; __aeabi_uidiv$div0 + 50
        0x000007d2:    460d        .F      MOV      r5,r1
        0x000007d4:    4095        .@      LSLS     r5,r5,r2
        0x000007d6:    1b64        d.      SUBS     r4,r4,r5
        0x000007d8:    461d        .F      MOV      r5,r3
        0x000007da:    4095        .@      LSLS     r5,r5,r2
        0x000007dc:    1940        @.      ADDS     r0,r0,r5
        0x000007de:    4615        .F      MOV      r5,r2
        0x000007e0:    1e52        R.      SUBS     r2,r2,#1
        0x000007e2:    2d00        .-      CMP      r5,#0
        0x000007e4:    dcf1        ..      BGT      0x7ca ; __aeabi_uidiv$div0 + 30
        0x000007e6:    4621        !F      MOV      r1,r4
        0x000007e8:    bd70        p.      POP      {r4-r6,pc}
    .text
    __aeabi_llsl
    _ll_shift_l
        0x000007ea:    b510        ..      PUSH     {r4,lr}
        0x000007ec:    2a20         *      CMP      r2,#0x20
        0x000007ee:    db04        ..      BLT      0x7fa ; __aeabi_llsl + 16
        0x000007f0:    4601        .F      MOV      r1,r0
        0x000007f2:    3a20         :      SUBS     r2,r2,#0x20
        0x000007f4:    4091        .@      LSLS     r1,r1,r2
        0x000007f6:    2000        .       MOVS     r0,#0
        0x000007f8:    bd10        ..      POP      {r4,pc}
        0x000007fa:    4091        .@      LSLS     r1,r1,r2
        0x000007fc:    2320         #      MOVS     r3,#0x20
        0x000007fe:    1a9c        ..      SUBS     r4,r3,r2
        0x00000800:    4603        .F      MOV      r3,r0
        0x00000802:    40e3        .@      LSRS     r3,r3,r4
        0x00000804:    4319        .C      ORRS     r1,r1,r3
        0x00000806:    4090        .@      LSLS     r0,r0,r2
        0x00000808:    bd10        ..      POP      {r4,pc}
    .text
    __aeabi_llsr
    _ll_ushift_r
        0x0000080a:    b510        ..      PUSH     {r4,lr}
        0x0000080c:    2a20         *      CMP      r2,#0x20
        0x0000080e:    db04        ..      BLT      0x81a ; __aeabi_llsr + 16
        0x00000810:    4608        .F      MOV      r0,r1
        0x00000812:    3a20         :      SUBS     r2,r2,#0x20
        0x00000814:    40d0        .@      LSRS     r0,r0,r2
        0x00000816:    2100        .!      MOVS     r1,#0
        0x00000818:    bd10        ..      POP      {r4,pc}
        0x0000081a:    460b        .F      MOV      r3,r1
        0x0000081c:    40d3        .@      LSRS     r3,r3,r2
        0x0000081e:    40d0        .@      LSRS     r0,r0,r2
        0x00000820:    2420         $      MOVS     r4,#0x20
        0x00000822:    1aa2        ..      SUBS     r2,r4,r2
        0x00000824:    4091        .@      LSLS     r1,r1,r2
        0x00000826:    4308        .C      ORRS     r0,r0,r1
        0x00000828:    4619        .F      MOV      r1,r3
        0x0000082a:    bd10        ..      POP      {r4,pc}
    .text
    __aeabi_lasr
    _ll_sshift_r
        0x0000082c:    b510        ..      PUSH     {r4,lr}
        0x0000082e:    2a20         *      CMP      r2,#0x20
        0x00000830:    db06        ..      BLT      0x840 ; __aeabi_lasr + 20
        0x00000832:    17cb        ..      ASRS     r3,r1,#31
        0x00000834:    4608        .F      MOV      r0,r1
        0x00000836:    3a20         :      SUBS     r2,r2,#0x20
        0x00000838:    4110        .A      ASRS     r0,r0,r2
        0x0000083a:    17c1        ..      ASRS     r1,r0,#31
        0x0000083c:    430b        .C      ORRS     r3,r3,r1
        0x0000083e:    e006        ..      B        0x84e ; __aeabi_lasr + 34
        0x00000840:    460b        .F      MOV      r3,r1
        0x00000842:    4113        .A      ASRS     r3,r3,r2
        0x00000844:    40d0        .@      LSRS     r0,r0,r2
        0x00000846:    2420         $      MOVS     r4,#0x20
        0x00000848:    1aa2        ..      SUBS     r2,r4,r2
        0x0000084a:    4091        .@      LSLS     r1,r1,r2
        0x0000084c:    4308        .C      ORRS     r0,r0,r1
        0x0000084e:    4619        .F      MOV      r1,r3
        0x00000850:    bd10        ..      POP      {r4,pc}
        0x00000852:    0000        ..      MOVS     r0,r0
    CLK_EnableModuleClock
        0x00000854:    211f        .!      MOVS     r1,#0x1f
        0x00000856:    4001        .@      ANDS     r1,r1,r0
        0x00000858:    2201        ."      MOVS     r2,#1
        0x0000085a:    408a        .@      LSLS     r2,r2,r1
        0x0000085c:    0f80        ..      LSRS     r0,r0,#30
        0x0000085e:    0080        ..      LSLS     r0,r0,#2
        0x00000860:    4903        .I      LDR      r1,[pc,#12] ; [0x870] = 0x25c0
        0x00000862:    5808        .X      LDR      r0,[r1,r0]
        0x00000864:    4903        .I      LDR      r1,[pc,#12] ; [0x874] = 0x40000204
        0x00000866:    5843        CX      LDR      r3,[r0,r1]
        0x00000868:    4313        .C      ORRS     r3,r3,r2
        0x0000086a:    5043        CP      STR      r3,[r0,r1]
        0x0000086c:    4770        pG      BX       lr
        0x0000086e:    46c0        .F      MOV      r8,r8
    $d
    __arm_cp.20_0
        0x00000870:    000025c0    .%..    DCD    9664
    __arm_cp.20_1
        0x00000874:    40000204    ...@    DCD    1073742340
    $t
    CLK_EnableXtalRC
        0x00000878:    4966        fI      LDR      r1,[pc,#408] ; [0xa14] = 0x40000200
        0x0000087a:    680a        .h      LDR      r2,[r1,#0]
        0x0000087c:    4302        .C      ORRS     r2,r2,r0
        0x0000087e:    600a        .`      STR      r2,[r1,#0]
        0x00000880:    4770        pG      BX       lr
        0x00000882:    46c0        .F      MOV      r8,r8
    CLK_GetHCLKFreq
        0x00000884:    b580        ..      PUSH     {r7,lr}
        0x00000886:    f001f8e7    ....    BL       SystemCoreClockUpdate ; 0x1a58
        0x0000088a:    4885        .H      LDR      r0,[pc,#532] ; [0xaa0] = 0x20000008
        0x0000088c:    6800        .h      LDR      r0,[r0,#0]
        0x0000088e:    bd80        ..      POP      {r7,pc}
    CLK_GetPCLK0Freq
        0x00000890:    b580        ..      PUSH     {r7,lr}
        0x00000892:    f001f8e1    ....    BL       SystemCoreClockUpdate ; 0x1a58
        0x00000896:    4832        2H      LDR      r0,[pc,#200] ; [0x960] = 0x40000234
        0x00000898:    6801        .h      LDR      r1,[r0,#0]
        0x0000089a:    2007        .       MOVS     r0,#7
        0x0000089c:    4008        .@      ANDS     r0,r0,r1
        0x0000089e:    2805        .(      CMP      r0,#5
        0x000008a0:    d827        '.      BHI      0x8f2 ; CLK_GetPCLK0Freq + 98
        0x000008a2:    0081        ..      LSLS     r1,r0,#2
        0x000008a4:    a201        ..      ADR      r2,{pc}+8 ; 0x8ac
        0x000008a6:    1851        Q.      ADDS     r1,r2,r1
        0x000008a8:    468f        .F      MOV      pc,r1
        0x000008aa:    46c0        .F      MOV      r8,r8
        0x000008ac:    f000b80a    ....    B.W      0x8c4 ; CLK_GetPCLK0Freq + 52
        0x000008b0:    f000b817    ....    B.W      0x8e2 ; CLK_GetPCLK0Freq + 82
        0x000008b4:    f000b80d    ....    B.W      0x8d2 ; CLK_GetPCLK0Freq + 66
        0x000008b8:    f000b80f    ....    B.W      0x8da ; CLK_GetPCLK0Freq + 74
        0x000008bc:    f000b805    ....    B.W      0x8ca ; CLK_GetPCLK0Freq + 58
        0x000008c0:    f000b813    ....    B.W      0x8ea ; CLK_GetPCLK0Freq + 90
        0x000008c4:    4876        vH      LDR      r0,[pc,#472] ; [0xaa0] = 0x20000008
        0x000008c6:    6800        .h      LDR      r0,[r0,#0]
        0x000008c8:    bd80        ..      POP      {r7,pc}
        0x000008ca:    4875        uH      LDR      r0,[pc,#468] ; [0xaa0] = 0x20000008
        0x000008cc:    6800        .h      LDR      r0,[r0,#0]
        0x000008ce:    0900        ..      LSRS     r0,r0,#4
        0x000008d0:    bd80        ..      POP      {r7,pc}
        0x000008d2:    4873        sH      LDR      r0,[pc,#460] ; [0xaa0] = 0x20000008
        0x000008d4:    6800        .h      LDR      r0,[r0,#0]
        0x000008d6:    0880        ..      LSRS     r0,r0,#2
        0x000008d8:    bd80        ..      POP      {r7,pc}
        0x000008da:    4871        qH      LDR      r0,[pc,#452] ; [0xaa0] = 0x20000008
        0x000008dc:    6800        .h      LDR      r0,[r0,#0]
        0x000008de:    08c0        ..      LSRS     r0,r0,#3
        0x000008e0:    bd80        ..      POP      {r7,pc}
        0x000008e2:    486f        oH      LDR      r0,[pc,#444] ; [0xaa0] = 0x20000008
        0x000008e4:    6800        .h      LDR      r0,[r0,#0]
        0x000008e6:    0840        @.      LSRS     r0,r0,#1
        0x000008e8:    bd80        ..      POP      {r7,pc}
        0x000008ea:    486d        mH      LDR      r0,[pc,#436] ; [0xaa0] = 0x20000008
        0x000008ec:    6800        .h      LDR      r0,[r0,#0]
        0x000008ee:    0940        @.      LSRS     r0,r0,#5
        0x000008f0:    bd80        ..      POP      {r7,pc}
        0x000008f2:    2000        .       MOVS     r0,#0
        0x000008f4:    bd80        ..      POP      {r7,pc}
        0x000008f6:    46c0        .F      MOV      r8,r8
    CLK_GetPCLK1Freq
        0x000008f8:    b580        ..      PUSH     {r7,lr}
        0x000008fa:    f001f8ad    ....    BL       SystemCoreClockUpdate ; 0x1a58
        0x000008fe:    4818        .H      LDR      r0,[pc,#96] ; [0x960] = 0x40000234
        0x00000900:    6800        .h      LDR      r0,[r0,#0]
        0x00000902:    0640        @.      LSLS     r0,r0,#25
        0x00000904:    0f40        @.      LSRS     r0,r0,#29
        0x00000906:    2805        .(      CMP      r0,#5
        0x00000908:    d827        '.      BHI      0x95a ; CLK_GetPCLK1Freq + 98
        0x0000090a:    0081        ..      LSLS     r1,r0,#2
        0x0000090c:    a201        ..      ADR      r2,{pc}+8 ; 0x914
        0x0000090e:    1851        Q.      ADDS     r1,r2,r1
        0x00000910:    468f        .F      MOV      pc,r1
        0x00000912:    46c0        .F      MOV      r8,r8
        0x00000914:    f000b80a    ....    B.W      0x92c ; CLK_GetPCLK1Freq + 52
        0x00000918:    f000b817    ....    B.W      0x94a ; CLK_GetPCLK1Freq + 82
        0x0000091c:    f000b80d    ....    B.W      0x93a ; CLK_GetPCLK1Freq + 66
        0x00000920:    f000b80f    ....    B.W      0x942 ; CLK_GetPCLK1Freq + 74
        0x00000924:    f000b805    ....    B.W      0x932 ; CLK_GetPCLK1Freq + 58
        0x00000928:    f000b813    ....    B.W      0x952 ; CLK_GetPCLK1Freq + 90
        0x0000092c:    485c        \H      LDR      r0,[pc,#368] ; [0xaa0] = 0x20000008
        0x0000092e:    6800        .h      LDR      r0,[r0,#0]
        0x00000930:    bd80        ..      POP      {r7,pc}
        0x00000932:    485b        [H      LDR      r0,[pc,#364] ; [0xaa0] = 0x20000008
        0x00000934:    6800        .h      LDR      r0,[r0,#0]
        0x00000936:    0900        ..      LSRS     r0,r0,#4
        0x00000938:    bd80        ..      POP      {r7,pc}
        0x0000093a:    4859        YH      LDR      r0,[pc,#356] ; [0xaa0] = 0x20000008
        0x0000093c:    6800        .h      LDR      r0,[r0,#0]
        0x0000093e:    0880        ..      LSRS     r0,r0,#2
        0x00000940:    bd80        ..      POP      {r7,pc}
        0x00000942:    4857        WH      LDR      r0,[pc,#348] ; [0xaa0] = 0x20000008
        0x00000944:    6800        .h      LDR      r0,[r0,#0]
        0x00000946:    08c0        ..      LSRS     r0,r0,#3
        0x00000948:    bd80        ..      POP      {r7,pc}
        0x0000094a:    4855        UH      LDR      r0,[pc,#340] ; [0xaa0] = 0x20000008
        0x0000094c:    6800        .h      LDR      r0,[r0,#0]
        0x0000094e:    0840        @.      LSRS     r0,r0,#1
        0x00000950:    bd80        ..      POP      {r7,pc}
        0x00000952:    4853        SH      LDR      r0,[pc,#332] ; [0xaa0] = 0x20000008
        0x00000954:    6800        .h      LDR      r0,[r0,#0]
        0x00000956:    0940        @.      LSRS     r0,r0,#5
        0x00000958:    bd80        ..      POP      {r7,pc}
        0x0000095a:    2000        .       MOVS     r0,#0
        0x0000095c:    bd80        ..      POP      {r7,pc}
        0x0000095e:    46c0        .F      MOV      r8,r8
    $d
    __arm_cp.7_0
        0x00000960:    40000234    4..@    DCD    1073742388
    $t
    CLK_GetPLLClockFreq
        0x00000964:    4811        .H      LDR      r0,[pc,#68] ; [0x9ac] = 0x40000240
        0x00000966:    6801        .h      LDR      r1,[r0,#0]
        0x00000968:    2005        .       MOVS     r0,#5
        0x0000096a:    0400        ..      LSLS     r0,r0,#16
        0x0000096c:    4201        .B      TST      r1,r0
        0x0000096e:    d001        ..      BEQ      0x974 ; CLK_GetPLLClockFreq + 16
        0x00000970:    2000        .       MOVS     r0,#0
        0x00000972:    4770        pG      BX       lr
        0x00000974:    2003        .       MOVS     r0,#3
        0x00000976:    04c0        ..      LSLS     r0,r0,#19
        0x00000978:    460a        .F      MOV      r2,r1
        0x0000097a:    4002        .@      ANDS     r2,r2,r0
        0x0000097c:    4282        .B      CMP      r2,r0
        0x0000097e:    d003        ..      BEQ      0x988 ; CLK_GetPLLClockFreq + 36
        0x00000980:    480c        .H      LDR      r0,[pc,#48] ; [0x9b4] = 0xb71b00
        0x00000982:    038a        ..      LSLS     r2,r1,#14
        0x00000984:    d503        ..      BPL      0x98e ; CLK_GetPLLClockFreq + 42
        0x00000986:    e010        ..      B        0x9aa ; CLK_GetPLLClockFreq + 70
        0x00000988:    4809        .H      LDR      r0,[pc,#36] ; [0x9b0] = 0x3d8600
        0x0000098a:    038a        ..      LSLS     r2,r1,#14
        0x0000098c:    d40d        ..      BMI      0x9aa ; CLK_GetPLLClockFreq + 70
        0x0000098e:    223f        ?"      MOVS     r2,#0x3f
        0x00000990:    400a        .@      ANDS     r2,r2,r1
        0x00000992:    0880        ..      LSRS     r0,r0,#2
        0x00000994:    4350        PC      MULS     r0,r2,r0
        0x00000996:    040a        ..      LSLS     r2,r1,#16
        0x00000998:    0f92        ..      LSRS     r2,r2,#30
        0x0000099a:    4b07        .K      LDR      r3,[pc,#28] ; [0x9b8] = 0x25f4
        0x0000099c:    5c9a        .\      LDRB     r2,[r3,r2]
        0x0000099e:    04c9        ..      LSLS     r1,r1,#19
        0x000009a0:    0f09        ..      LSRS     r1,r1,#28
        0x000009a2:    4351        QC      MULS     r1,r2,r1
        0x000009a4:    fbb0f0f1    ....    UDIV     r0,r0,r1
        0x000009a8:    0080        ..      LSLS     r0,r0,#2
        0x000009aa:    4770        pG      BX       lr
    $d
    __arm_cp.10_0
        0x000009ac:    40000240    @..@    DCD    1073742400
    __arm_cp.10_1
        0x000009b0:    003d8600    ..=.    DCD    4032000
    __arm_cp.10_2
        0x000009b4:    00b71b00    ....    DCD    12000000
    __arm_cp.10_3
        0x000009b8:    000025f4    .%..    DCD    9716
    $t
    CLK_SetHCLK
        0x000009bc:    b5f0        ..      PUSH     {r4-r7,lr}
        0x000009be:    b081        ..      SUB      sp,sp,#4
        0x000009c0:    4c14        .L      LDR      r4,[pc,#80] ; [0xa14] = 0x40000200
        0x000009c2:    6d27        'm      LDR      r7,[r4,#0x50]
        0x000009c4:    6822        "h      LDR      r2,[r4,#0]
        0x000009c6:    2504        .%      MOVS     r5,#4
        0x000009c8:    432a        *C      ORRS     r2,r2,r5
        0x000009ca:    6022        "`      STR      r2,[r4,#0]
        0x000009cc:    4a33        3J      LDR      r2,[pc,#204] ; [0xa9c] = 0x20000064
        0x000009ce:    2300        .#      MOVS     r3,#0
        0x000009d0:    6013        .`      STR      r3,[r2,#0]
        0x000009d2:    2610        .&      MOVS     r6,#0x10
        0x000009d4:    403e        >@      ANDS     r6,r6,r7
        0x000009d6:    4f32        2O      LDR      r7,[pc,#200] ; [0xaa0] = 0x20000008
        0x000009d8:    683f        ?h      LDR      r7,[r7,#0]
        0x000009da:    6d22        "m      LDR      r2,[r4,#0x50]
        0x000009dc:    06d2        ..      LSLS     r2,r2,#27
        0x000009de:    d404        ..      BMI      0x9ea ; CLK_SetHCLK + 46
        0x000009e0:    1e7f        ..      SUBS     r7,r7,#1
        0x000009e2:    d1fa        ..      BNE      0x9da ; CLK_SetHCLK + 30
        0x000009e4:    43da        .C      MVNS     r2,r3
        0x000009e6:    4b2d        -K      LDR      r3,[pc,#180] ; [0xa9c] = 0x20000064
        0x000009e8:    601a        .`      STR      r2,[r3,#0]
        0x000009ea:    6922        "i      LDR      r2,[r4,#0x10]
        0x000009ec:    2307        .#      MOVS     r3,#7
        0x000009ee:    431a        .C      ORRS     r2,r2,r3
        0x000009f0:    6122        "a      STR      r2,[r4,#0x10]
        0x000009f2:    6a22        "j      LDR      r2,[r4,#0x20]
        0x000009f4:    270f        .'      MOVS     r7,#0xf
        0x000009f6:    43ba        .C      BICS     r2,r2,r7
        0x000009f8:    430a        .C      ORRS     r2,r2,r1
        0x000009fa:    6222        "b      STR      r2,[r4,#0x20]
        0x000009fc:    6921        !i      LDR      r1,[r4,#0x10]
        0x000009fe:    4399        .C      BICS     r1,r1,r3
        0x00000a00:    4301        .C      ORRS     r1,r1,r0
        0x00000a02:    6121        !a      STR      r1,[r4,#0x10]
        0x00000a04:    f001f828    ..(.    BL       SystemCoreClockUpdate ; 0x1a58
        0x00000a08:    b916        ..      CBNZ     r6,0xa10 ; CLK_SetHCLK + 84
        0x00000a0a:    6820         h      LDR      r0,[r4,#0]
        0x00000a0c:    43a8        .C      BICS     r0,r0,r5
        0x00000a0e:    6020         `      STR      r0,[r4,#0]
        0x00000a10:    b001        ..      ADD      sp,sp,#4
        0x00000a12:    bdf0        ..      POP      {r4-r7,pc}
    $d
    __arm_cp.14_0
        0x00000a14:    40000200    ...@    DCD    1073742336
    $t
    CLK_SetModuleClock
        0x00000a18:    b570        p.      PUSH     {r4-r6,lr}
        0x00000a1a:    0a83        ..      LSRS     r3,r0,#10
        0x00000a1c:    b2dc        ..      UXTB     r4,r3
        0x00000a1e:    4b0f        .K      LDR      r3,[pc,#60] ; [0xa5c] = 0x40000210
        0x00000a20:    b164        d.      CBZ      r4,0xa3c ; CLK_SetModuleClock + 36
        0x00000a22:    0585        ..      LSLS     r5,r0,#22
        0x00000a24:    0eed        ..      LSRS     r5,r5,#27
        0x00000a26:    40ac        .@      LSLS     r4,r4,r5
        0x00000a28:    0c05        ..      LSRS     r5,r0,#16
        0x00000a2a:    260c        .&      MOVS     r6,#0xc
        0x00000a2c:    402e        .@      ANDS     r6,r6,r5
        0x00000a2e:    a50c        ..      ADR      r5,{pc}+0x32 ; 0xa60
        0x00000a30:    59ad        .Y      LDR      r5,[r5,r6]
        0x00000a32:    195d        ].      ADDS     r5,r3,r5
        0x00000a34:    692e        .i      LDR      r6,[r5,#0x10]
        0x00000a36:    43a6        .C      BICS     r6,r6,r4
        0x00000a38:    4316        .C      ORRS     r6,r6,r2
        0x00000a3a:    612e        .a      STR      r6,[r5,#0x10]
        0x00000a3c:    0102        ..      LSLS     r2,r0,#4
        0x00000a3e:    0f52        R.      LSRS     r2,r2,#29
        0x00000a40:    d00b        ..      BEQ      0xa5a ; CLK_SetModuleClock + 66
        0x00000a42:    01c4        ..      LSLS     r4,r0,#7
        0x00000a44:    0ee4        ..      LSRS     r4,r4,#27
        0x00000a46:    40a2        .@      LSLS     r2,r2,r4
        0x00000a48:    0e80        ..      LSRS     r0,r0,#26
        0x00000a4a:    240c        .$      MOVS     r4,#0xc
        0x00000a4c:    4004        .@      ANDS     r4,r4,r0
        0x00000a4e:    4808        .H      LDR      r0,[pc,#32] ; [0xa70] = 0x25e4
        0x00000a50:    5900        .Y      LDR      r0,[r0,r4]
        0x00000a52:    58c4        .X      LDR      r4,[r0,r3]
        0x00000a54:    4394        .C      BICS     r4,r4,r2
        0x00000a56:    430c        .C      ORRS     r4,r4,r1
        0x00000a58:    50c4        .P      STR      r4,[r0,r3]
        0x00000a5a:    bd70        p.      POP      {r4-r6,pc}
    $d
    __arm_cp.16_0
        0x00000a5c:    40000210    ...@    DCD    1073742352
        0x00000a60:    00000000    ....    DCD    0
        0x00000a64:    00000004    ....    DCD    4
        0x00000a68:    0000000c    ....    DCD    12
        0x00000a6c:    00000010    ....    DCD    16
    __arm_cp.16_2
        0x00000a70:    000025e4    .%..    DCD    9700
    $t
    CLK_WaitClockReady
        0x00000a74:    b570        p.      PUSH     {r4-r6,lr}
        0x00000a76:    4601        .F      MOV      r1,r0
        0x00000a78:    4a08        .J      LDR      r2,[pc,#32] ; [0xa9c] = 0x20000064
        0x00000a7a:    2000        .       MOVS     r0,#0
        0x00000a7c:    6010        .`      STR      r0,[r2,#0]
        0x00000a7e:    4b08        .K      LDR      r3,[pc,#32] ; [0xaa0] = 0x20000008
        0x00000a80:    681b        .h      LDR      r3,[r3,#0]
        0x00000a82:    4d08        .M      LDR      r5,[pc,#32] ; [0xaa4] = 0x40000250
        0x00000a84:    2401        .$      MOVS     r4,#1
        0x00000a86:    682e        .h      LDR      r6,[r5,#0]
        0x00000a88:    420e        .B      TST      r6,r1
        0x00000a8a:    d104        ..      BNE      0xa96 ; CLK_WaitClockReady + 34
        0x00000a8c:    1e5b        [.      SUBS     r3,r3,#1
        0x00000a8e:    d1fa        ..      BNE      0xa86 ; CLK_WaitClockReady + 18
        0x00000a90:    43c1        .C      MVNS     r1,r0
        0x00000a92:    6011        .`      STR      r1,[r2,#0]
        0x00000a94:    bd70        p.      POP      {r4-r6,pc}
        0x00000a96:    4620         F      MOV      r0,r4
        0x00000a98:    bd70        p.      POP      {r4-r6,pc}
        0x00000a9a:    46c0        .F      MOV      r8,r8
    $d
    __arm_cp.13_0
        0x00000a9c:    20000064    d..     DCD    536871012
    __arm_cp.13_1
        0x00000aa0:    20000008    ...     DCD    536870920
    __arm_cp.13_2
        0x00000aa4:    40000250    P..@    DCD    1073742416
    $t
    GPA_IRQHandler
        0x00000aa8:    b5b0        ..      PUSH     {r4,r5,r7,lr}
        0x00000aaa:    4818        .H      LDR      r0,[pc,#96] ; [0xb0c] = 0x40004020
        0x00000aac:    6801        .h      LDR      r1,[r0,#0]
        0x00000aae:    06c9        ..      LSLS     r1,r1,#27
        0x00000ab0:    d400        ..      BMI      0xab4 ; GPA_IRQHandler + 12
        0x00000ab2:    bdb0        ..      POP      {r4,r5,r7,pc}
        0x00000ab4:    2110        .!      MOVS     r1,#0x10
        0x00000ab6:    6001        .`      STR      r1,[r0,#0]
        0x00000ab8:    2400        .$      MOVS     r4,#0
        0x00000aba:    4620         F      MOV      r0,r4
        0x00000abc:    f000fe9c    ....    BL       SPI_SetChannel_and_ReadADCData ; 0x17f8
        0x00000ac0:    4601        .F      MOV      r1,r0
        0x00000ac2:    0200        ..      LSLS     r0,r0,#8
        0x00000ac4:    d502        ..      BPL      0xacc ; GPA_IRQHandler + 36
        0x00000ac6:    20ff        .       MOVS     r0,#0xff
        0x00000ac8:    0600        ..      LSLS     r0,r0,#24
        0x00000aca:    1809        ..      ADDS     r1,r1,r0
        0x00000acc:    4d10        .M      LDR      r5,[pc,#64] ; [0xb10] = 0x20000068
        0x00000ace:    6029        )`      STR      r1,[r5,#0]
        0x00000ad0:    a010        ..      ADR      r0,{pc}+0x44 ; 0xb14
        0x00000ad2:    f001f8d9    ....    BL       __0printf ; 0x1c88
        0x00000ad6:    6828        (h      LDR      r0,[r5,#0]
        0x00000ad8:    f7fffbe6    ....    BL       __aeabi_i2f ; 0x2a8
        0x00000adc:    f7fffbef    ....    BL       __aeabi_f2d ; 0x2be
        0x00000ae0:    227d        }"      MOVS     r2,#0x7d
        0x00000ae2:    05d3        ..      LSLS     r3,r2,#23
        0x00000ae4:    4622        "F      MOV      r2,r4
        0x00000ae6:    f7fffb77    ..w.    BL       __aeabi_dmul ; 0x1d8
        0x00000aea:    4a0d        .J      LDR      r2,[pc,#52] ; [0xb20] = 0x33333333
        0x00000aec:    4b0d        .K      LDR      r3,[pc,#52] ; [0xb24] = 0x40033333
        0x00000aee:    f7fffb73    ..s.    BL       __aeabi_dmul ; 0x1d8
        0x00000af2:    f7fffbf8    ....    BL       __aeabi_d2f ; 0x2e6
        0x00000af6:    f7fffbe2    ....    BL       __aeabi_f2d ; 0x2be
        0x00000afa:    4602        .F      MOV      r2,r0
        0x00000afc:    a00a        ..      ADR      r0,{pc}+0x2c ; 0xb28
        0x00000afe:    460b        .F      MOV      r3,r1
        0x00000b00:    bcb0        ..      POP      {r4,r5,r7}
        0x00000b02:    bc02        ..      POP      {r1}
        0x00000b04:    468e        .F      MOV      lr,r1
        0x00000b06:    f001b8bf    ....    B.W      __0printf ; 0x1c88
        0x00000b0a:    46c0        .F      MOV      r8,r8
    $d
    __arm_cp.2_0
        0x00000b0c:    40004020     @.@    DCD    1073758240
    __arm_cp.2_1
        0x00000b10:    20000068    h..     DCD    536871016
        0x00000b14:    20434441    ADC     DCD    541279297
        0x00000b18:    6425203d    = %d    DCD    1680154685
        0x00000b1c:    0000202c    , ..    DCD    8236
    __arm_cp.2_3
        0x00000b20:    33333333    3333    DCD    858993459
    __arm_cp.2_4
        0x00000b24:    40033333    33.@    DCD    1073951539
        0x00000b28:    746c6f56    Volt    DCD    1953263446
        0x00000b2c:    25203d20     = %    DCD    622869792
        0x00000b30:    2066352e    .5f     DCD    543569198
        0x00000b34:    00000a56    V...    DCD    2646
    $t
    GPIO_EnableInt
        0x00000b38:    b510        ..      PUSH     {r4,lr}
        0x00000b3a:    0e13        ..      LSRS     r3,r2,#24
        0x00000b3c:    408b        .@      LSLS     r3,r3,r1
        0x00000b3e:    6984        .i      LDR      r4,[r0,#0x18]
        0x00000b40:    431c        .C      ORRS     r4,r4,r3
        0x00000b42:    6184        .a      STR      r4,[r0,#0x18]
        0x00000b44:    23ff        .#      MOVS     r3,#0xff
        0x00000b46:    061b        ..      LSLS     r3,r3,#24
        0x00000b48:    439a        .C      BICS     r2,r2,r3
        0x00000b4a:    408a        .@      LSLS     r2,r2,r1
        0x00000b4c:    69c1        .i      LDR      r1,[r0,#0x1c]
        0x00000b4e:    4311        .C      ORRS     r1,r1,r2
        0x00000b50:    61c1        .a      STR      r1,[r0,#0x1c]
        0x00000b52:    bd10        ..      POP      {r4,pc}
    GPIO_SetMode
        0x00000b54:    b5f0        ..      PUSH     {r4-r7,lr}
        0x00000b56:    b081        ..      SUB      sp,sp,#4
        0x00000b58:    9200        ..      STR      r2,[sp,#0]
        0x00000b5a:    2300        .#      MOVS     r3,#0
        0x00000b5c:    2203        ."      MOVS     r2,#3
        0x00000b5e:    461d        .F      MOV      r5,r3
        0x00000b60:    e003        ..      B        0xb6a ; GPIO_SetMode + 22
        0x00000b62:    1c9b        ..      ADDS     r3,r3,#2
        0x00000b64:    1c6d        m.      ADDS     r5,r5,#1
        0x00000b66:    2d10        .-      CMP      r5,#0x10
        0x00000b68:    d00c        ..      BEQ      0xb84 ; GPIO_SetMode + 48
        0x00000b6a:    460e        .F      MOV      r6,r1
        0x00000b6c:    40ee        .@      LSRS     r6,r6,r5
        0x00000b6e:    07f6        ..      LSLS     r6,r6,#31
        0x00000b70:    d0f7        ..      BEQ      0xb62 ; GPIO_SetMode + 14
        0x00000b72:    9e00        ..      LDR      r6,[sp,#0]
        0x00000b74:    409e        .@      LSLS     r6,r6,r3
        0x00000b76:    4617        .F      MOV      r7,r2
        0x00000b78:    409f        .@      LSLS     r7,r7,r3
        0x00000b7a:    6804        .h      LDR      r4,[r0,#0]
        0x00000b7c:    43bc        .C      BICS     r4,r4,r7
        0x00000b7e:    4334        4C      ORRS     r4,r4,r6
        0x00000b80:    6004        .`      STR      r4,[r0,#0]
        0x00000b82:    e7ee        ..      B        0xb62 ; GPIO_SetMode + 14
        0x00000b84:    b001        ..      ADD      sp,sp,#4
        0x00000b86:    bdf0        ..      POP      {r4-r7,pc}
    GetChar
        0x00000b88:    4803        .H      LDR      r0,[pc,#12] ; [0xb98] = 0x40070000
        0x00000b8a:    6981        .i      LDR      r1,[r0,#0x18]
        0x00000b8c:    0449        I.      LSLS     r1,r1,#17
        0x00000b8e:    d4fc        ..      BMI      0xb8a ; GetChar + 2
        0x00000b90:    6800        .h      LDR      r0,[r0,#0]
        0x00000b92:    b2c0        ..      UXTB     r0,r0
        0x00000b94:    4770        pG      BX       lr
        0x00000b96:    46c0        .F      MOV      r8,r8
    $d
    __arm_cp.4_0
        0x00000b98:    40070000    ...@    DCD    1074200576
    $t
    NADC24B_Cali_and_Initial
        0x00000b9c:    b5f0        ..      PUSH     {r4-r7,lr}
        0x00000b9e:    b08f        ..      SUB      sp,sp,#0x3c
        0x00000ba0:    4d06        .M      LDR      r5,[pc,#24] ; [0xbbc] = 0x40061014
        0x00000ba2:    462a        *F      MOV      r2,r5
        0x00000ba4:    3a0c        .:      SUBS     r2,r2,#0xc
        0x00000ba6:    6810        .h      LDR      r0,[r2,#0]
        0x00000ba8:    2101        .!      MOVS     r1,#1
        0x00000baa:    4308        .C      ORRS     r0,r0,r1
        0x00000bac:    230c        .#      MOVS     r3,#0xc
        0x00000bae:    930a        ..      STR      r3,[sp,#0x28]
        0x00000bb0:    4398        .C      BICS     r0,r0,r3
        0x00000bb2:    6010        .`      STR      r0,[r2,#0]
        0x00000bb4:    910b        ..      STR      r1,[sp,#0x2c]
        0x00000bb6:    044c        L.      LSLS     r4,r1,#17
        0x00000bb8:    e002        ..      B        0xbc0 ; 0xbc0
        0x00000bba:    46c0        .F      MOV      r8,r8
    $d
    __arm_cp.8_5
        0x00000bbc:    40061014    ...@    DCD    1074139156
    $t
        0x00000bc0:    6828        (h      LDR      r0,[r5,#0]
        0x00000bc2:    4220         B      TST      r0,r4
        0x00000bc4:    d1fc        ..      BNE      0xbc0 ; 0xbc0
        0x00000bc6:    20fc        .       MOVS     r0,#0xfc
        0x00000bc8:    9008        ..      STR      r0,[sp,#0x20]
        0x00000bca:    60e8        .`      STR      r0,[r5,#0xc]
        0x00000bcc:    6828        (h      LDR      r0,[r5,#0]
        0x00000bce:    07c0        ..      LSLS     r0,r0,#31
        0x00000bd0:    d1fc        ..      BNE      0xbcc ; 0xbcc
        0x00000bd2:    69e8        .i      LDR      r0,[r5,#0x1c]
        0x00000bd4:    6828        (h      LDR      r0,[r5,#0]
        0x00000bd6:    4220         B      TST      r0,r4
        0x00000bd8:    d1fc        ..      BNE      0xbd4 ; 0xbd4
        0x00000bda:    2000        .       MOVS     r0,#0
        0x00000bdc:    60e8        .`      STR      r0,[r5,#0xc]
        0x00000bde:    6829        )h      LDR      r1,[r5,#0]
        0x00000be0:    07c9        ..      LSLS     r1,r1,#31
        0x00000be2:    d1fc        ..      BNE      0xbde ; 0xbde
        0x00000be4:    69e9        .i      LDR      r1,[r5,#0x1c]
        0x00000be6:    6829        )h      LDR      r1,[r5,#0]
        0x00000be8:    4221        !B      TST      r1,r4
        0x00000bea:    d1fc        ..      BNE      0xbe6 ; 0xbe6
        0x00000bec:    2153        S!      MOVS     r1,#0x53
        0x00000bee:    9104        ..      STR      r1,[sp,#0x10]
        0x00000bf0:    60e9        .`      STR      r1,[r5,#0xc]
        0x00000bf2:    6829        )h      LDR      r1,[r5,#0]
        0x00000bf4:    07c9        ..      LSLS     r1,r1,#31
        0x00000bf6:    d1fc        ..      BNE      0xbf2 ; 0xbf2
        0x00000bf8:    69e9        .i      LDR      r1,[r5,#0x1c]
        0x00000bfa:    6811        .h      LDR      r1,[r2,#0]
        0x00000bfc:    2305        .#      MOVS     r3,#5
        0x00000bfe:    930d        ..      STR      r3,[sp,#0x34]
        0x00000c00:    4319        .C      ORRS     r1,r1,r3
        0x00000c02:    2308        .#      MOVS     r3,#8
        0x00000c04:    930c        ..      STR      r3,[sp,#0x30]
        0x00000c06:    4399        .C      BICS     r1,r1,r3
        0x00000c08:    6011        .`      STR      r1,[r2,#0]
        0x00000c0a:    6811        .h      LDR      r1,[r2,#0]
        0x00000c0c:    9b0b        ..      LDR      r3,[sp,#0x2c]
        0x00000c0e:    4319        .C      ORRS     r1,r1,r3
        0x00000c10:    9b0a        ..      LDR      r3,[sp,#0x28]
        0x00000c12:    4399        .C      BICS     r1,r1,r3
        0x00000c14:    6011        .`      STR      r1,[r2,#0]
        0x00000c16:    6829        )h      LDR      r1,[r5,#0]
        0x00000c18:    4221        !B      TST      r1,r4
        0x00000c1a:    d1fc        ..      BNE      0xc16 ; 0xc16
        0x00000c1c:    2140        @!      MOVS     r1,#0x40
        0x00000c1e:    60e9        .`      STR      r1,[r5,#0xc]
        0x00000c20:    6829        )h      LDR      r1,[r5,#0]
        0x00000c22:    07c9        ..      LSLS     r1,r1,#31
        0x00000c24:    d1fc        ..      BNE      0xc20 ; 0xc20
        0x00000c26:    69e9        .i      LDR      r1,[r5,#0x1c]
        0x00000c28:    6829        )h      LDR      r1,[r5,#0]
        0x00000c2a:    4221        !B      TST      r1,r4
        0x00000c2c:    d1fc        ..      BNE      0xc28 ; 0xc28
        0x00000c2e:    60e8        .`      STR      r0,[r5,#0xc]
        0x00000c30:    6829        )h      LDR      r1,[r5,#0]
        0x00000c32:    07c9        ..      LSLS     r1,r1,#31
        0x00000c34:    d1fc        ..      BNE      0xc30 ; 0xc30
        0x00000c36:    69e9        .i      LDR      r1,[r5,#0x1c]
        0x00000c38:    6829        )h      LDR      r1,[r5,#0]
        0x00000c3a:    4221        !B      TST      r1,r4
        0x00000c3c:    d1fc        ..      BNE      0xc38 ; 0xc38
        0x00000c3e:    60e8        .`      STR      r0,[r5,#0xc]
        0x00000c40:    6828        (h      LDR      r0,[r5,#0]
        0x00000c42:    07c0        ..      LSLS     r0,r0,#31
        0x00000c44:    d1fc        ..      BNE      0xc40 ; 0xc40
        0x00000c46:    69e8        .i      LDR      r0,[r5,#0x1c]
        0x00000c48:    6811        .h      LDR      r1,[r2,#0]
        0x00000c4a:    9b0d        ..      LDR      r3,[sp,#0x34]
        0x00000c4c:    4319        .C      ORRS     r1,r1,r3
        0x00000c4e:    9b0c        ..      LDR      r3,[sp,#0x30]
        0x00000c50:    4399        .C      BICS     r1,r1,r3
        0x00000c52:    6011        .`      STR      r1,[r2,#0]
        0x00000c54:    21c0        .!      MOVS     r1,#0xc0
        0x00000c56:    9105        ..      STR      r1,[sp,#0x14]
        0x00000c58:    4308        .C      ORRS     r0,r0,r1
        0x00000c5a:    a90e        ..      ADD      r1,sp,#0x38
        0x00000c5c:    7008        .p      STRB     r0,[r1,#0]
        0x00000c5e:    7809        .x      LDRB     r1,[r1,#0]
        0x00000c60:    2600        .&      MOVS     r6,#0
        0x00000c62:    4630        0F      MOV      r0,r6
        0x00000c64:    9209        ..      STR      r2,[sp,#0x24]
        0x00000c66:    f000fe15    ....    BL       SPI_WriteReg_Bank1_Until_Success ; 0x1894
        0x00000c6a:    9a09        ..      LDR      r2,[sp,#0x24]
        0x00000c6c:    6810        .h      LDR      r0,[r2,#0]
        0x00000c6e:    990b        ..      LDR      r1,[sp,#0x2c]
        0x00000c70:    4308        .C      ORRS     r0,r0,r1
        0x00000c72:    990a        ..      LDR      r1,[sp,#0x28]
        0x00000c74:    4388        .C      BICS     r0,r0,r1
        0x00000c76:    6010        .`      STR      r0,[r2,#0]
        0x00000c78:    6828        (h      LDR      r0,[r5,#0]
        0x00000c7a:    4220         B      TST      r0,r4
        0x00000c7c:    d1fc        ..      BNE      0xc78 ; 0xc78
        0x00000c7e:    2043        C       MOVS     r0,#0x43
        0x00000c80:    9006        ..      STR      r0,[sp,#0x18]
        0x00000c82:    60e8        .`      STR      r0,[r5,#0xc]
        0x00000c84:    6828        (h      LDR      r0,[r5,#0]
        0x00000c86:    07c0        ..      LSLS     r0,r0,#31
        0x00000c88:    d1fc        ..      BNE      0xc84 ; 0xc84
        0x00000c8a:    69e8        .i      LDR      r0,[r5,#0x1c]
        0x00000c8c:    6828        (h      LDR      r0,[r5,#0]
        0x00000c8e:    4220         B      TST      r0,r4
        0x00000c90:    d1fc        ..      BNE      0xc8c ; 0xc8c
        0x00000c92:    60ee        .`      STR      r6,[r5,#0xc]
        0x00000c94:    6828        (h      LDR      r0,[r5,#0]
        0x00000c96:    07c0        ..      LSLS     r0,r0,#31
        0x00000c98:    d1fc        ..      BNE      0xc94 ; 0xc94
        0x00000c9a:    69e8        .i      LDR      r0,[r5,#0x1c]
        0x00000c9c:    6828        (h      LDR      r0,[r5,#0]
        0x00000c9e:    4220         B      TST      r0,r4
        0x00000ca0:    d1fc        ..      BNE      0xc9c ; 0xc9c
        0x00000ca2:    60ee        .`      STR      r6,[r5,#0xc]
        0x00000ca4:    6828        (h      LDR      r0,[r5,#0]
        0x00000ca6:    07c0        ..      LSLS     r0,r0,#31
        0x00000ca8:    d1fc        ..      BNE      0xca4 ; 0xca4
        0x00000caa:    69e8        .i      LDR      r0,[r5,#0x1c]
        0x00000cac:    6811        .h      LDR      r1,[r2,#0]
        0x00000cae:    9b0d        ..      LDR      r3,[sp,#0x34]
        0x00000cb0:    4319        .C      ORRS     r1,r1,r3
        0x00000cb2:    9b0c        ..      LDR      r3,[sp,#0x30]
        0x00000cb4:    4399        .C      BICS     r1,r1,r3
        0x00000cb6:    6011        .`      STR      r1,[r2,#0]
        0x00000cb8:    2120         !      MOVS     r1,#0x20
        0x00000cba:    9107        ..      STR      r1,[sp,#0x1c]
        0x00000cbc:    4008        .@      ANDS     r0,r0,r1
        0x00000cbe:    301a        .0      ADDS     r0,r0,#0x1a
        0x00000cc0:    a90e        ..      ADD      r1,sp,#0x38
        0x00000cc2:    7008        .p      STRB     r0,[r1,#0]
        0x00000cc4:    7809        .x      LDRB     r1,[r1,#0]
        0x00000cc6:    2703        .'      MOVS     r7,#3
        0x00000cc8:    4638        8F      MOV      r0,r7
        0x00000cca:    f000fde3    ....    BL       SPI_WriteReg_Bank1_Until_Success ; 0x1894
        0x00000cce:    9a09        ..      LDR      r2,[sp,#0x24]
        0x00000cd0:    6810        .h      LDR      r0,[r2,#0]
        0x00000cd2:    990b        ..      LDR      r1,[sp,#0x2c]
        0x00000cd4:    4308        .C      ORRS     r0,r0,r1
        0x00000cd6:    990a        ..      LDR      r1,[sp,#0x28]
        0x00000cd8:    4388        .C      BICS     r0,r0,r1
        0x00000cda:    6010        .`      STR      r0,[r2,#0]
        0x00000cdc:    6828        (h      LDR      r0,[r5,#0]
        0x00000cde:    4220         B      TST      r0,r4
        0x00000ce0:    d1fc        ..      BNE      0xcdc ; 0xcdc
        0x00000ce2:    2044        D       MOVS     r0,#0x44
        0x00000ce4:    9003        ..      STR      r0,[sp,#0xc]
        0x00000ce6:    60e8        .`      STR      r0,[r5,#0xc]
        0x00000ce8:    6828        (h      LDR      r0,[r5,#0]
        0x00000cea:    07c0        ..      LSLS     r0,r0,#31
        0x00000cec:    d1fc        ..      BNE      0xce8 ; 0xce8
        0x00000cee:    69e8        .i      LDR      r0,[r5,#0x1c]
        0x00000cf0:    6828        (h      LDR      r0,[r5,#0]
        0x00000cf2:    4220         B      TST      r0,r4
        0x00000cf4:    d1fc        ..      BNE      0xcf0 ; 0xcf0
        0x00000cf6:    60ee        .`      STR      r6,[r5,#0xc]
        0x00000cf8:    6828        (h      LDR      r0,[r5,#0]
        0x00000cfa:    07c0        ..      LSLS     r0,r0,#31
        0x00000cfc:    d1fc        ..      BNE      0xcf8 ; 0xcf8
        0x00000cfe:    69e8        .i      LDR      r0,[r5,#0x1c]
        0x00000d00:    6828        (h      LDR      r0,[r5,#0]
        0x00000d02:    4220         B      TST      r0,r4
        0x00000d04:    d1fc        ..      BNE      0xd00 ; 0xd00
        0x00000d06:    60ee        .`      STR      r6,[r5,#0xc]
        0x00000d08:    6828        (h      LDR      r0,[r5,#0]
        0x00000d0a:    07c0        ..      LSLS     r0,r0,#31
        0x00000d0c:    d1fc        ..      BNE      0xd08 ; 0xd08
        0x00000d0e:    69e8        .i      LDR      r0,[r5,#0x1c]
        0x00000d10:    6811        .h      LDR      r1,[r2,#0]
        0x00000d12:    9b0d        ..      LDR      r3,[sp,#0x34]
        0x00000d14:    4319        .C      ORRS     r1,r1,r3
        0x00000d16:    9b0c        ..      LDR      r3,[sp,#0x30]
        0x00000d18:    4399        .C      BICS     r1,r1,r3
        0x00000d1a:    6011        .`      STR      r1,[r2,#0]
        0x00000d1c:    4038        8@      ANDS     r0,r0,r7
        0x00000d1e:    3020         0      ADDS     r0,r0,#0x20
        0x00000d20:    a90e        ..      ADD      r1,sp,#0x38
        0x00000d22:    7008        .p      STRB     r0,[r1,#0]
        0x00000d24:    7809        .x      LDRB     r1,[r1,#0]
        0x00000d26:    2004        .       MOVS     r0,#4
        0x00000d28:    f000fdb4    ....    BL       SPI_WriteReg_Bank1_Until_Success ; 0x1894
        0x00000d2c:    9a09        ..      LDR      r2,[sp,#0x24]
        0x00000d2e:    6810        .h      LDR      r0,[r2,#0]
        0x00000d30:    990b        ..      LDR      r1,[sp,#0x2c]
        0x00000d32:    4308        .C      ORRS     r0,r0,r1
        0x00000d34:    990a        ..      LDR      r1,[sp,#0x28]
        0x00000d36:    4388        .C      BICS     r0,r0,r1
        0x00000d38:    6010        .`      STR      r0,[r2,#0]
        0x00000d3a:    6828        (h      LDR      r0,[r5,#0]
        0x00000d3c:    4220         B      TST      r0,r4
        0x00000d3e:    d1fc        ..      BNE      0xd3a ; 0xd3a
        0x00000d40:    2047        G       MOVS     r0,#0x47
        0x00000d42:    60e8        .`      STR      r0,[r5,#0xc]
        0x00000d44:    6828        (h      LDR      r0,[r5,#0]
        0x00000d46:    07c0        ..      LSLS     r0,r0,#31
        0x00000d48:    d1fc        ..      BNE      0xd44 ; 0xd44
        0x00000d4a:    69e8        .i      LDR      r0,[r5,#0x1c]
        0x00000d4c:    6828        (h      LDR      r0,[r5,#0]
        0x00000d4e:    4220         B      TST      r0,r4
        0x00000d50:    d1fc        ..      BNE      0xd4c ; 0xd4c
        0x00000d52:    60ee        .`      STR      r6,[r5,#0xc]
        0x00000d54:    6828        (h      LDR      r0,[r5,#0]
        0x00000d56:    07c0        ..      LSLS     r0,r0,#31
        0x00000d58:    d1fc        ..      BNE      0xd54 ; 0xd54
        0x00000d5a:    69e8        .i      LDR      r0,[r5,#0x1c]
        0x00000d5c:    6828        (h      LDR      r0,[r5,#0]
        0x00000d5e:    4220         B      TST      r0,r4
        0x00000d60:    d1fc        ..      BNE      0xd5c ; 0xd5c
        0x00000d62:    60ee        .`      STR      r6,[r5,#0xc]
        0x00000d64:    6828        (h      LDR      r0,[r5,#0]
        0x00000d66:    07c0        ..      LSLS     r0,r0,#31
        0x00000d68:    d1fc        ..      BNE      0xd64 ; 0xd64
        0x00000d6a:    69e8        .i      LDR      r0,[r5,#0x1c]
        0x00000d6c:    6811        .h      LDR      r1,[r2,#0]
        0x00000d6e:    9b0d        ..      LDR      r3,[sp,#0x34]
        0x00000d70:    4319        .C      ORRS     r1,r1,r3
        0x00000d72:    9b0c        ..      LDR      r3,[sp,#0x30]
        0x00000d74:    4399        .C      BICS     r1,r1,r3
        0x00000d76:    6011        .`      STR      r1,[r2,#0]
        0x00000d78:    4038        8@      ANDS     r0,r0,r7
        0x00000d7a:    300c        .0      ADDS     r0,r0,#0xc
        0x00000d7c:    a90e        ..      ADD      r1,sp,#0x38
        0x00000d7e:    7008        .p      STRB     r0,[r1,#0]
        0x00000d80:    7809        .x      LDRB     r1,[r1,#0]
        0x00000d82:    2007        .       MOVS     r0,#7
        0x00000d84:    f000fd86    ....    BL       SPI_WriteReg_Bank1_Until_Success ; 0x1894
        0x00000d88:    9a09        ..      LDR      r2,[sp,#0x24]
        0x00000d8a:    6810        .h      LDR      r0,[r2,#0]
        0x00000d8c:    990b        ..      LDR      r1,[sp,#0x2c]
        0x00000d8e:    4308        .C      ORRS     r0,r0,r1
        0x00000d90:    990a        ..      LDR      r1,[sp,#0x28]
        0x00000d92:    4388        .C      BICS     r0,r0,r1
        0x00000d94:    6010        .`      STR      r0,[r2,#0]
        0x00000d96:    6828        (h      LDR      r0,[r5,#0]
        0x00000d98:    4220         B      TST      r0,r4
        0x00000d9a:    d1fc        ..      BNE      0xd96 ; 0xd96
        0x00000d9c:    2048        H       MOVS     r0,#0x48
        0x00000d9e:    60e8        .`      STR      r0,[r5,#0xc]
        0x00000da0:    6828        (h      LDR      r0,[r5,#0]
        0x00000da2:    07c0        ..      LSLS     r0,r0,#31
        0x00000da4:    d1fc        ..      BNE      0xda0 ; 0xda0
        0x00000da6:    69e8        .i      LDR      r0,[r5,#0x1c]
        0x00000da8:    6828        (h      LDR      r0,[r5,#0]
        0x00000daa:    4220         B      TST      r0,r4
        0x00000dac:    d1fc        ..      BNE      0xda8 ; 0xda8
        0x00000dae:    60ee        .`      STR      r6,[r5,#0xc]
        0x00000db0:    6828        (h      LDR      r0,[r5,#0]
        0x00000db2:    07c0        ..      LSLS     r0,r0,#31
        0x00000db4:    d1fc        ..      BNE      0xdb0 ; 0xdb0
        0x00000db6:    69e8        .i      LDR      r0,[r5,#0x1c]
        0x00000db8:    6828        (h      LDR      r0,[r5,#0]
        0x00000dba:    4220         B      TST      r0,r4
        0x00000dbc:    d1fc        ..      BNE      0xdb8 ; 0xdb8
        0x00000dbe:    9702        ..      STR      r7,[sp,#8]
        0x00000dc0:    60ee        .`      STR      r6,[r5,#0xc]
        0x00000dc2:    6828        (h      LDR      r0,[r5,#0]
        0x00000dc4:    07c0        ..      LSLS     r0,r0,#31
        0x00000dc6:    d1fc        ..      BNE      0xdc2 ; 0xdc2
        0x00000dc8:    69ef        .i      LDR      r7,[r5,#0x1c]
        0x00000dca:    6811        .h      LDR      r1,[r2,#0]
        0x00000dcc:    9b0d        ..      LDR      r3,[sp,#0x34]
        0x00000dce:    4319        .C      ORRS     r1,r1,r3
        0x00000dd0:    980c        ..      LDR      r0,[sp,#0x30]
        0x00000dd2:    4381        .C      BICS     r1,r1,r0
        0x00000dd4:    6011        .`      STR      r1,[r2,#0]
        0x00000dd6:    9908        ..      LDR      r1,[sp,#0x20]
        0x00000dd8:    400f        .@      ANDS     r7,r7,r1
        0x00000dda:    1c7a        z.      ADDS     r2,r7,#1
        0x00000ddc:    a90e        ..      ADD      r1,sp,#0x38
        0x00000dde:    700a        .p      STRB     r2,[r1,#0]
        0x00000de0:    7809        .x      LDRB     r1,[r1,#0]
        0x00000de2:    f000fd57    ..W.    BL       SPI_WriteReg_Bank1_Until_Success ; 0x1894
        0x00000de6:    9a09        ..      LDR      r2,[sp,#0x24]
        0x00000de8:    6810        .h      LDR      r0,[r2,#0]
        0x00000dea:    990b        ..      LDR      r1,[sp,#0x2c]
        0x00000dec:    4308        .C      ORRS     r0,r0,r1
        0x00000dee:    990a        ..      LDR      r1,[sp,#0x28]
        0x00000df0:    4388        .C      BICS     r0,r0,r1
        0x00000df2:    6010        .`      STR      r0,[r2,#0]
        0x00000df4:    6828        (h      LDR      r0,[r5,#0]
        0x00000df6:    4220         B      TST      r0,r4
        0x00000df8:    d1fc        ..      BNE      0xdf4 ; 0xdf4
        0x00000dfa:    2049        I       MOVS     r0,#0x49
        0x00000dfc:    60e8        .`      STR      r0,[r5,#0xc]
        0x00000dfe:    6828        (h      LDR      r0,[r5,#0]
        0x00000e00:    07c0        ..      LSLS     r0,r0,#31
        0x00000e02:    d1fc        ..      BNE      0xdfe ; 0xdfe
        0x00000e04:    69e8        .i      LDR      r0,[r5,#0x1c]
        0x00000e06:    6828        (h      LDR      r0,[r5,#0]
        0x00000e08:    4220         B      TST      r0,r4
        0x00000e0a:    d1fc        ..      BNE      0xe06 ; 0xe06
        0x00000e0c:    60ee        .`      STR      r6,[r5,#0xc]
        0x00000e0e:    6828        (h      LDR      r0,[r5,#0]
        0x00000e10:    07c0        ..      LSLS     r0,r0,#31
        0x00000e12:    d1fc        ..      BNE      0xe0e ; 0xe0e
        0x00000e14:    69e8        .i      LDR      r0,[r5,#0x1c]
        0x00000e16:    6828        (h      LDR      r0,[r5,#0]
        0x00000e18:    4220         B      TST      r0,r4
        0x00000e1a:    d1fc        ..      BNE      0xe16 ; 0xe16
        0x00000e1c:    60ee        .`      STR      r6,[r5,#0xc]
        0x00000e1e:    6828        (h      LDR      r0,[r5,#0]
        0x00000e20:    07c0        ..      LSLS     r0,r0,#31
        0x00000e22:    d1fc        ..      BNE      0xe1e ; 0xe1e
        0x00000e24:    69e8        .i      LDR      r0,[r5,#0x1c]
        0x00000e26:    6811        .h      LDR      r1,[r2,#0]
        0x00000e28:    9b0d        ..      LDR      r3,[sp,#0x34]
        0x00000e2a:    4319        .C      ORRS     r1,r1,r3
        0x00000e2c:    9b0c        ..      LDR      r3,[sp,#0x30]
        0x00000e2e:    4399        .C      BICS     r1,r1,r3
        0x00000e30:    6011        .`      STR      r1,[r2,#0]
        0x00000e32:    9905        ..      LDR      r1,[sp,#0x14]
        0x00000e34:    4008        .@      ANDS     r0,r0,r1
        0x00000e36:    3015        .0      ADDS     r0,r0,#0x15
        0x00000e38:    a90e        ..      ADD      r1,sp,#0x38
        0x00000e3a:    7008        .p      STRB     r0,[r1,#0]
        0x00000e3c:    7809        .x      LDRB     r1,[r1,#0]
        0x00000e3e:    2009        .       MOVS     r0,#9
        0x00000e40:    f000fd28    ..(.    BL       SPI_WriteReg_Bank1_Until_Success ; 0x1894
        0x00000e44:    9a09        ..      LDR      r2,[sp,#0x24]
        0x00000e46:    6810        .h      LDR      r0,[r2,#0]
        0x00000e48:    990b        ..      LDR      r1,[sp,#0x2c]
        0x00000e4a:    4308        .C      ORRS     r0,r0,r1
        0x00000e4c:    990a        ..      LDR      r1,[sp,#0x28]
        0x00000e4e:    4388        .C      BICS     r0,r0,r1
        0x00000e50:    6010        .`      STR      r0,[r2,#0]
        0x00000e52:    6828        (h      LDR      r0,[r5,#0]
        0x00000e54:    4220         B      TST      r0,r4
        0x00000e56:    d1fc        ..      BNE      0xe52 ; 0xe52
        0x00000e58:    204a        J       MOVS     r0,#0x4a
        0x00000e5a:    60e8        .`      STR      r0,[r5,#0xc]
        0x00000e5c:    6828        (h      LDR      r0,[r5,#0]
        0x00000e5e:    07c0        ..      LSLS     r0,r0,#31
        0x00000e60:    d1fc        ..      BNE      0xe5c ; 0xe5c
        0x00000e62:    69e8        .i      LDR      r0,[r5,#0x1c]
        0x00000e64:    6828        (h      LDR      r0,[r5,#0]
        0x00000e66:    4220         B      TST      r0,r4
        0x00000e68:    d1fc        ..      BNE      0xe64 ; 0xe64
        0x00000e6a:    60ee        .`      STR      r6,[r5,#0xc]
        0x00000e6c:    6828        (h      LDR      r0,[r5,#0]
        0x00000e6e:    07c0        ..      LSLS     r0,r0,#31
        0x00000e70:    d1fc        ..      BNE      0xe6c ; 0xe6c
        0x00000e72:    69e8        .i      LDR      r0,[r5,#0x1c]
        0x00000e74:    6828        (h      LDR      r0,[r5,#0]
        0x00000e76:    4220         B      TST      r0,r4
        0x00000e78:    d1fc        ..      BNE      0xe74 ; 0xe74
        0x00000e7a:    60ee        .`      STR      r6,[r5,#0xc]
        0x00000e7c:    6828        (h      LDR      r0,[r5,#0]
        0x00000e7e:    07c0        ..      LSLS     r0,r0,#31
        0x00000e80:    d1fc        ..      BNE      0xe7c ; 0xe7c
        0x00000e82:    69e8        .i      LDR      r0,[r5,#0x1c]
        0x00000e84:    6811        .h      LDR      r1,[r2,#0]
        0x00000e86:    9b0d        ..      LDR      r3,[sp,#0x34]
        0x00000e88:    4319        .C      ORRS     r1,r1,r3
        0x00000e8a:    9b0c        ..      LDR      r3,[sp,#0x30]
        0x00000e8c:    4399        .C      BICS     r1,r1,r3
        0x00000e8e:    6011        .`      STR      r1,[r2,#0]
        0x00000e90:    9903        ..      LDR      r1,[sp,#0xc]
        0x00000e92:    4308        .C      ORRS     r0,r0,r1
        0x00000e94:    a90e        ..      ADD      r1,sp,#0x38
        0x00000e96:    7008        .p      STRB     r0,[r1,#0]
        0x00000e98:    7809        .x      LDRB     r1,[r1,#0]
        0x00000e9a:    200a        .       MOVS     r0,#0xa
        0x00000e9c:    9003        ..      STR      r0,[sp,#0xc]
        0x00000e9e:    f000fcf9    ....    BL       SPI_WriteReg_Bank1_Until_Success ; 0x1894
        0x00000ea2:    9a09        ..      LDR      r2,[sp,#0x24]
        0x00000ea4:    6810        .h      LDR      r0,[r2,#0]
        0x00000ea6:    990b        ..      LDR      r1,[sp,#0x2c]
        0x00000ea8:    4308        .C      ORRS     r0,r0,r1
        0x00000eaa:    990a        ..      LDR      r1,[sp,#0x28]
        0x00000eac:    4388        .C      BICS     r0,r0,r1
        0x00000eae:    6010        .`      STR      r0,[r2,#0]
        0x00000eb0:    6828        (h      LDR      r0,[r5,#0]
        0x00000eb2:    4220         B      TST      r0,r4
        0x00000eb4:    d1fc        ..      BNE      0xeb0 ; 0xeb0
        0x00000eb6:    204e        N       MOVS     r0,#0x4e
        0x00000eb8:    60e8        .`      STR      r0,[r5,#0xc]
        0x00000eba:    6828        (h      LDR      r0,[r5,#0]
        0x00000ebc:    07c0        ..      LSLS     r0,r0,#31
        0x00000ebe:    d1fc        ..      BNE      0xeba ; 0xeba
        0x00000ec0:    69e8        .i      LDR      r0,[r5,#0x1c]
        0x00000ec2:    6828        (h      LDR      r0,[r5,#0]
        0x00000ec4:    4220         B      TST      r0,r4
        0x00000ec6:    d1fc        ..      BNE      0xec2 ; 0xec2
        0x00000ec8:    60ee        .`      STR      r6,[r5,#0xc]
        0x00000eca:    6828        (h      LDR      r0,[r5,#0]
        0x00000ecc:    07c0        ..      LSLS     r0,r0,#31
        0x00000ece:    d1fc        ..      BNE      0xeca ; 0xeca
        0x00000ed0:    69e8        .i      LDR      r0,[r5,#0x1c]
        0x00000ed2:    6828        (h      LDR      r0,[r5,#0]
        0x00000ed4:    4220         B      TST      r0,r4
        0x00000ed6:    d1fc        ..      BNE      0xed2 ; 0xed2
        0x00000ed8:    60ee        .`      STR      r6,[r5,#0xc]
        0x00000eda:    6828        (h      LDR      r0,[r5,#0]
        0x00000edc:    07c0        ..      LSLS     r0,r0,#31
        0x00000ede:    d1fc        ..      BNE      0xeda ; 0xeda
        0x00000ee0:    69e8        .i      LDR      r0,[r5,#0x1c]
        0x00000ee2:    6811        .h      LDR      r1,[r2,#0]
        0x00000ee4:    9b0d        ..      LDR      r3,[sp,#0x34]
        0x00000ee6:    4319        .C      ORRS     r1,r1,r3
        0x00000ee8:    9b0c        ..      LDR      r3,[sp,#0x30]
        0x00000eea:    4399        .C      BICS     r1,r1,r3
        0x00000eec:    6011        .`      STR      r1,[r2,#0]
        0x00000eee:    9906        ..      LDR      r1,[sp,#0x18]
        0x00000ef0:    4008        .@      ANDS     r0,r0,r1
        0x00000ef2:    3084        .0      ADDS     r0,r0,#0x84
        0x00000ef4:    a90e        ..      ADD      r1,sp,#0x38
        0x00000ef6:    7008        .p      STRB     r0,[r1,#0]
        0x00000ef8:    7809        .x      LDRB     r1,[r1,#0]
        0x00000efa:    200e        .       MOVS     r0,#0xe
        0x00000efc:    f000fcca    ....    BL       SPI_WriteReg_Bank1_Until_Success ; 0x1894
        0x00000f00:    9a09        ..      LDR      r2,[sp,#0x24]
        0x00000f02:    6810        .h      LDR      r0,[r2,#0]
        0x00000f04:    990b        ..      LDR      r1,[sp,#0x2c]
        0x00000f06:    4308        .C      ORRS     r0,r0,r1
        0x00000f08:    990a        ..      LDR      r1,[sp,#0x28]
        0x00000f0a:    4388        .C      BICS     r0,r0,r1
        0x00000f0c:    6010        .`      STR      r0,[r2,#0]
        0x00000f0e:    6828        (h      LDR      r0,[r5,#0]
        0x00000f10:    4220         B      TST      r0,r4
        0x00000f12:    d1fc        ..      BNE      0xf0e ; 0xf0e
        0x00000f14:    2050        P       MOVS     r0,#0x50
        0x00000f16:    60e8        .`      STR      r0,[r5,#0xc]
        0x00000f18:    6828        (h      LDR      r0,[r5,#0]
        0x00000f1a:    07c0        ..      LSLS     r0,r0,#31
        0x00000f1c:    d1fc        ..      BNE      0xf18 ; 0xf18
        0x00000f1e:    69e8        .i      LDR      r0,[r5,#0x1c]
        0x00000f20:    6828        (h      LDR      r0,[r5,#0]
        0x00000f22:    4220         B      TST      r0,r4
        0x00000f24:    d1fc        ..      BNE      0xf20 ; 0xf20
        0x00000f26:    60ee        .`      STR      r6,[r5,#0xc]
        0x00000f28:    6828        (h      LDR      r0,[r5,#0]
        0x00000f2a:    07c0        ..      LSLS     r0,r0,#31
        0x00000f2c:    d1fc        ..      BNE      0xf28 ; 0xf28
        0x00000f2e:    69e8        .i      LDR      r0,[r5,#0x1c]
        0x00000f30:    6828        (h      LDR      r0,[r5,#0]
        0x00000f32:    4220         B      TST      r0,r4
        0x00000f34:    d1fc        ..      BNE      0xf30 ; 0xf30
        0x00000f36:    60ee        .`      STR      r6,[r5,#0xc]
        0x00000f38:    6828        (h      LDR      r0,[r5,#0]
        0x00000f3a:    07c0        ..      LSLS     r0,r0,#31
        0x00000f3c:    d1fc        ..      BNE      0xf38 ; 0xf38
        0x00000f3e:    69e8        .i      LDR      r0,[r5,#0x1c]
        0x00000f40:    6811        .h      LDR      r1,[r2,#0]
        0x00000f42:    9b0d        ..      LDR      r3,[sp,#0x34]
        0x00000f44:    4319        .C      ORRS     r1,r1,r3
        0x00000f46:    9b0c        ..      LDR      r3,[sp,#0x30]
        0x00000f48:    4399        .C      BICS     r1,r1,r3
        0x00000f4a:    6011        .`      STR      r1,[r2,#0]
        0x00000f4c:    213e        >!      MOVS     r1,#0x3e
        0x00000f4e:    4001        .@      ANDS     r1,r1,r0
        0x00000f50:    3181        .1      ADDS     r1,r1,#0x81
        0x00000f52:    a80e        ..      ADD      r0,sp,#0x38
        0x00000f54:    7001        .p      STRB     r1,[r0,#0]
        0x00000f56:    7801        .x      LDRB     r1,[r0,#0]
        0x00000f58:    2010        .       MOVS     r0,#0x10
        0x00000f5a:    f000fc9b    ....    BL       SPI_WriteReg_Bank1_Until_Success ; 0x1894
        0x00000f5e:    9a09        ..      LDR      r2,[sp,#0x24]
        0x00000f60:    6810        .h      LDR      r0,[r2,#0]
        0x00000f62:    990b        ..      LDR      r1,[sp,#0x2c]
        0x00000f64:    4308        .C      ORRS     r0,r0,r1
        0x00000f66:    990a        ..      LDR      r1,[sp,#0x28]
        0x00000f68:    4388        .C      BICS     r0,r0,r1
        0x00000f6a:    6010        .`      STR      r0,[r2,#0]
        0x00000f6c:    6828        (h      LDR      r0,[r5,#0]
        0x00000f6e:    4220         B      TST      r0,r4
        0x00000f70:    d1fc        ..      BNE      0xf6c ; 0xf6c
        0x00000f72:    9804        ..      LDR      r0,[sp,#0x10]
        0x00000f74:    60e8        .`      STR      r0,[r5,#0xc]
        0x00000f76:    6828        (h      LDR      r0,[r5,#0]
        0x00000f78:    07c0        ..      LSLS     r0,r0,#31
        0x00000f7a:    d1fc        ..      BNE      0xf76 ; 0xf76
        0x00000f7c:    69e8        .i      LDR      r0,[r5,#0x1c]
        0x00000f7e:    6828        (h      LDR      r0,[r5,#0]
        0x00000f80:    4220         B      TST      r0,r4
        0x00000f82:    d1fc        ..      BNE      0xf7e ; 0xf7e
        0x00000f84:    60ee        .`      STR      r6,[r5,#0xc]
        0x00000f86:    6828        (h      LDR      r0,[r5,#0]
        0x00000f88:    07c0        ..      LSLS     r0,r0,#31
        0x00000f8a:    d1fc        ..      BNE      0xf86 ; 0xf86
        0x00000f8c:    69e8        .i      LDR      r0,[r5,#0x1c]
        0x00000f8e:    6828        (h      LDR      r0,[r5,#0]
        0x00000f90:    4220         B      TST      r0,r4
        0x00000f92:    d1fc        ..      BNE      0xf8e ; 0xf8e
        0x00000f94:    60ee        .`      STR      r6,[r5,#0xc]
        0x00000f96:    6828        (h      LDR      r0,[r5,#0]
        0x00000f98:    07c0        ..      LSLS     r0,r0,#31
        0x00000f9a:    d1fc        ..      BNE      0xf96 ; 0xf96
        0x00000f9c:    69e8        .i      LDR      r0,[r5,#0x1c]
        0x00000f9e:    6811        .h      LDR      r1,[r2,#0]
        0x00000fa0:    9b0d        ..      LDR      r3,[sp,#0x34]
        0x00000fa2:    4319        .C      ORRS     r1,r1,r3
        0x00000fa4:    9b0c        ..      LDR      r3,[sp,#0x30]
        0x00000fa6:    4399        .C      BICS     r1,r1,r3
        0x00000fa8:    6011        .`      STR      r1,[r2,#0]
        0x00000faa:    9f0b        ..      LDR      r7,[sp,#0x2c]
        0x00000fac:    4038        8@      ANDS     r0,r0,r7
        0x00000fae:    30c0        .0      ADDS     r0,r0,#0xc0
        0x00000fb0:    a90e        ..      ADD      r1,sp,#0x38
        0x00000fb2:    7008        .p      STRB     r0,[r1,#0]
        0x00000fb4:    7809        .x      LDRB     r1,[r1,#0]
        0x00000fb6:    2013        .       MOVS     r0,#0x13
        0x00000fb8:    f000fc6c    ..l.    BL       SPI_WriteReg_Bank1_Until_Success ; 0x1894
        0x00000fbc:    9a09        ..      LDR      r2,[sp,#0x24]
        0x00000fbe:    6810        .h      LDR      r0,[r2,#0]
        0x00000fc0:    4338        8C      ORRS     r0,r0,r7
        0x00000fc2:    990a        ..      LDR      r1,[sp,#0x28]
        0x00000fc4:    4388        .C      BICS     r0,r0,r1
        0x00000fc6:    6010        .`      STR      r0,[r2,#0]
        0x00000fc8:    6828        (h      LDR      r0,[r5,#0]
        0x00000fca:    4220         B      TST      r0,r4
        0x00000fcc:    d1fc        ..      BNE      0xfc8 ; 0xfc8
        0x00000fce:    2055        U       MOVS     r0,#0x55
        0x00000fd0:    60e8        .`      STR      r0,[r5,#0xc]
        0x00000fd2:    6828        (h      LDR      r0,[r5,#0]
        0x00000fd4:    07c0        ..      LSLS     r0,r0,#31
        0x00000fd6:    d1fc        ..      BNE      0xfd2 ; 0xfd2
        0x00000fd8:    69e8        .i      LDR      r0,[r5,#0x1c]
        0x00000fda:    6828        (h      LDR      r0,[r5,#0]
        0x00000fdc:    4220         B      TST      r0,r4
        0x00000fde:    d1fc        ..      BNE      0xfda ; 0xfda
        0x00000fe0:    60ee        .`      STR      r6,[r5,#0xc]
        0x00000fe2:    6828        (h      LDR      r0,[r5,#0]
        0x00000fe4:    07c0        ..      LSLS     r0,r0,#31
        0x00000fe6:    d1fc        ..      BNE      0xfe2 ; 0xfe2
        0x00000fe8:    69e8        .i      LDR      r0,[r5,#0x1c]
        0x00000fea:    6828        (h      LDR      r0,[r5,#0]
        0x00000fec:    4220         B      TST      r0,r4
        0x00000fee:    d1fc        ..      BNE      0xfea ; 0xfea
        0x00000ff0:    60ee        .`      STR      r6,[r5,#0xc]
        0x00000ff2:    6828        (h      LDR      r0,[r5,#0]
        0x00000ff4:    07c0        ..      LSLS     r0,r0,#31
        0x00000ff6:    d1fc        ..      BNE      0xff2 ; 0xff2
        0x00000ff8:    69e8        .i      LDR      r0,[r5,#0x1c]
        0x00000ffa:    6811        .h      LDR      r1,[r2,#0]
        0x00000ffc:    9b0d        ..      LDR      r3,[sp,#0x34]
        0x00000ffe:    4319        .C      ORRS     r1,r1,r3
        0x00001000:    9b0c        ..      LDR      r3,[sp,#0x30]
        0x00001002:    4399        .C      BICS     r1,r1,r3
        0x00001004:    6011        .`      STR      r1,[r2,#0]
        0x00001006:    210f        .!      MOVS     r1,#0xf
        0x00001008:    4001        .@      ANDS     r1,r1,r0
        0x0000100a:    31e0        .1      ADDS     r1,r1,#0xe0
        0x0000100c:    a80e        ..      ADD      r0,sp,#0x38
        0x0000100e:    7001        .p      STRB     r1,[r0,#0]
        0x00001010:    7801        .x      LDRB     r1,[r0,#0]
        0x00001012:    2015        .       MOVS     r0,#0x15
        0x00001014:    f000fc3e    ..>.    BL       SPI_WriteReg_Bank1_Until_Success ; 0x1894
        0x00001018:    9a09        ..      LDR      r2,[sp,#0x24]
        0x0000101a:    6810        .h      LDR      r0,[r2,#0]
        0x0000101c:    990b        ..      LDR      r1,[sp,#0x2c]
        0x0000101e:    4308        .C      ORRS     r0,r0,r1
        0x00001020:    990a        ..      LDR      r1,[sp,#0x28]
        0x00001022:    4388        .C      BICS     r0,r0,r1
        0x00001024:    6010        .`      STR      r0,[r2,#0]
        0x00001026:    6828        (h      LDR      r0,[r5,#0]
        0x00001028:    4220         B      TST      r0,r4
        0x0000102a:    d1fc        ..      BNE      0x1026 ; 0x1026
        0x0000102c:    2056        V       MOVS     r0,#0x56
        0x0000102e:    60e8        .`      STR      r0,[r5,#0xc]
        0x00001030:    6828        (h      LDR      r0,[r5,#0]
        0x00001032:    07c0        ..      LSLS     r0,r0,#31
        0x00001034:    d1fc        ..      BNE      0x1030 ; 0x1030
        0x00001036:    69e8        .i      LDR      r0,[r5,#0x1c]
        0x00001038:    6828        (h      LDR      r0,[r5,#0]
        0x0000103a:    4220         B      TST      r0,r4
        0x0000103c:    d1fc        ..      BNE      0x1038 ; 0x1038
        0x0000103e:    60ee        .`      STR      r6,[r5,#0xc]
        0x00001040:    6828        (h      LDR      r0,[r5,#0]
        0x00001042:    07c0        ..      LSLS     r0,r0,#31
        0x00001044:    d1fc        ..      BNE      0x1040 ; 0x1040
        0x00001046:    69e8        .i      LDR      r0,[r5,#0x1c]
        0x00001048:    6828        (h      LDR      r0,[r5,#0]
        0x0000104a:    4220         B      TST      r0,r4
        0x0000104c:    d1fc        ..      BNE      0x1048 ; 0x1048
        0x0000104e:    60ee        .`      STR      r6,[r5,#0xc]
        0x00001050:    6828        (h      LDR      r0,[r5,#0]
        0x00001052:    07c0        ..      LSLS     r0,r0,#31
        0x00001054:    d1fc        ..      BNE      0x1050 ; 0x1050
        0x00001056:    69e8        .i      LDR      r0,[r5,#0x1c]
        0x00001058:    6811        .h      LDR      r1,[r2,#0]
        0x0000105a:    9b0d        ..      LDR      r3,[sp,#0x34]
        0x0000105c:    4319        .C      ORRS     r1,r1,r3
        0x0000105e:    9b0c        ..      LDR      r3,[sp,#0x30]
        0x00001060:    4399        .C      BICS     r1,r1,r3
        0x00001062:    6011        .`      STR      r1,[r2,#0]
        0x00001064:    9908        ..      LDR      r1,[sp,#0x20]
        0x00001066:    4008        .@      ANDS     r0,r0,r1
        0x00001068:    1c80        ..      ADDS     r0,r0,#2
        0x0000106a:    a90e        ..      ADD      r1,sp,#0x38
        0x0000106c:    7008        .p      STRB     r0,[r1,#0]
        0x0000106e:    7809        .x      LDRB     r1,[r1,#0]
        0x00001070:    2016        .       MOVS     r0,#0x16
        0x00001072:    f000fc0f    ....    BL       SPI_WriteReg_Bank1_Until_Success ; 0x1894
        0x00001076:    9909        ..      LDR      r1,[sp,#0x24]
        0x00001078:    6808        .h      LDR      r0,[r1,#0]
        0x0000107a:    9a0b        ..      LDR      r2,[sp,#0x2c]
        0x0000107c:    4310        .C      ORRS     r0,r0,r2
        0x0000107e:    9a0a        ..      LDR      r2,[sp,#0x28]
        0x00001080:    4390        .C      BICS     r0,r0,r2
        0x00001082:    6008        .`      STR      r0,[r1,#0]
        0x00001084:    6828        (h      LDR      r0,[r5,#0]
        0x00001086:    4220         B      TST      r0,r4
        0x00001088:    d1fc        ..      BNE      0x1084 ; 0x1084
        0x0000108a:    9808        ..      LDR      r0,[sp,#0x20]
        0x0000108c:    60e8        .`      STR      r0,[r5,#0xc]
        0x0000108e:    6828        (h      LDR      r0,[r5,#0]
        0x00001090:    07c0        ..      LSLS     r0,r0,#31
        0x00001092:    d1fc        ..      BNE      0x108e ; 0x108e
        0x00001094:    69e8        .i      LDR      r0,[r5,#0x1c]
        0x00001096:    6828        (h      LDR      r0,[r5,#0]
        0x00001098:    4220         B      TST      r0,r4
        0x0000109a:    d1fc        ..      BNE      0x1096 ; 0x1096
        0x0000109c:    60ee        .`      STR      r6,[r5,#0xc]
        0x0000109e:    6828        (h      LDR      r0,[r5,#0]
        0x000010a0:    07c0        ..      LSLS     r0,r0,#31
        0x000010a2:    d1fc        ..      BNE      0x109e ; 0x109e
        0x000010a4:    69e8        .i      LDR      r0,[r5,#0x1c]
        0x000010a6:    6828        (h      LDR      r0,[r5,#0]
        0x000010a8:    4220         B      TST      r0,r4
        0x000010aa:    d1fc        ..      BNE      0x10a6 ; 0x10a6
        0x000010ac:    20ca        .       MOVS     r0,#0xca
        0x000010ae:    60e8        .`      STR      r0,[r5,#0xc]
        0x000010b0:    6828        (h      LDR      r0,[r5,#0]
        0x000010b2:    07c0        ..      LSLS     r0,r0,#31
        0x000010b4:    d1fc        ..      BNE      0x10b0 ; 0x10b0
        0x000010b6:    69e8        .i      LDR      r0,[r5,#0x1c]
        0x000010b8:    6808        .h      LDR      r0,[r1,#0]
        0x000010ba:    9a0d        ..      LDR      r2,[sp,#0x34]
        0x000010bc:    4310        .C      ORRS     r0,r0,r2
        0x000010be:    9a0c        ..      LDR      r2,[sp,#0x30]
        0x000010c0:    4390        .C      BICS     r0,r0,r2
        0x000010c2:    6008        .`      STR      r0,[r1,#0]
        0x000010c4:    48c6        .H      LDR      r0,[pc,#792] ; [0x13e0] = 0xe000e010
        0x000010c6:    49c7        .I      LDR      r1,[pc,#796] ; [0x13e4] = 0x20000000
        0x000010c8:    f24032e8    @..2    MOVW     r2,#0x3e8
        0x000010cc:    4633        3F      MOV      r3,r6
        0x000010ce:    680f        .h      LDR      r7,[r1,#0]
        0x000010d0:    4357        WC      MULS     r7,r2,r7
        0x000010d2:    6047        G`      STR      r7,[r0,#4]
        0x000010d4:    6086        .`      STR      r6,[r0,#8]
        0x000010d6:    9f0d        ..      LDR      r7,[sp,#0x34]
        0x000010d8:    6007        .`      STR      r7,[r0,#0]
        0x000010da:    6807        .h      LDR      r7,[r0,#0]
        0x000010dc:    03ff        ..      LSLS     r7,r7,#15
        0x000010de:    d5fc        ..      BPL      0x10da ; 0x10da
        0x000010e0:    6006        .`      STR      r6,[r0,#0]
        0x000010e2:    1c5b        [.      ADDS     r3,r3,#1
        0x000010e4:    2b0a        .+      CMP      r3,#0xa
        0x000010e6:    d1f2        ..      BNE      0x10ce ; 0x10ce
        0x000010e8:    9a09        ..      LDR      r2,[sp,#0x24]
        0x000010ea:    6810        .h      LDR      r0,[r2,#0]
        0x000010ec:    990b        ..      LDR      r1,[sp,#0x2c]
        0x000010ee:    4308        .C      ORRS     r0,r0,r1
        0x000010f0:    990a        ..      LDR      r1,[sp,#0x28]
        0x000010f2:    4388        .C      BICS     r0,r0,r1
        0x000010f4:    6010        .`      STR      r0,[r2,#0]
        0x000010f6:    6828        (h      LDR      r0,[r5,#0]
        0x000010f8:    4220         B      TST      r0,r4
        0x000010fa:    d1fc        ..      BNE      0x10f6 ; 0x10f6
        0x000010fc:    2051        Q       MOVS     r0,#0x51
        0x000010fe:    9001        ..      STR      r0,[sp,#4]
        0x00001100:    60e8        .`      STR      r0,[r5,#0xc]
        0x00001102:    6828        (h      LDR      r0,[r5,#0]
        0x00001104:    07c0        ..      LSLS     r0,r0,#31
        0x00001106:    d1fc        ..      BNE      0x1102 ; 0x1102
        0x00001108:    69e8        .i      LDR      r0,[r5,#0x1c]
        0x0000110a:    6828        (h      LDR      r0,[r5,#0]
        0x0000110c:    4220         B      TST      r0,r4
        0x0000110e:    d1fc        ..      BNE      0x110a ; 0x110a
        0x00001110:    2100        .!      MOVS     r1,#0
        0x00001112:    60e9        .`      STR      r1,[r5,#0xc]
        0x00001114:    6828        (h      LDR      r0,[r5,#0]
        0x00001116:    07c0        ..      LSLS     r0,r0,#31
        0x00001118:    d1fc        ..      BNE      0x1114 ; 0x1114
        0x0000111a:    69e8        .i      LDR      r0,[r5,#0x1c]
        0x0000111c:    6828        (h      LDR      r0,[r5,#0]
        0x0000111e:    4220         B      TST      r0,r4
        0x00001120:    d1fc        ..      BNE      0x111c ; 0x111c
        0x00001122:    460e        .F      MOV      r6,r1
        0x00001124:    60e9        .`      STR      r1,[r5,#0xc]
        0x00001126:    6828        (h      LDR      r0,[r5,#0]
        0x00001128:    07c0        ..      LSLS     r0,r0,#31
        0x0000112a:    d1fc        ..      BNE      0x1126 ; 0x1126
        0x0000112c:    69e8        .i      LDR      r0,[r5,#0x1c]
        0x0000112e:    6811        .h      LDR      r1,[r2,#0]
        0x00001130:    9b0d        ..      LDR      r3,[sp,#0x34]
        0x00001132:    4319        .C      ORRS     r1,r1,r3
        0x00001134:    9b0c        ..      LDR      r3,[sp,#0x30]
        0x00001136:    4399        .C      BICS     r1,r1,r3
        0x00001138:    6011        .`      STR      r1,[r2,#0]
        0x0000113a:    9908        ..      LDR      r1,[sp,#0x20]
        0x0000113c:    4308        .C      ORRS     r0,r0,r1
        0x0000113e:    a90e        ..      ADD      r1,sp,#0x38
        0x00001140:    7008        .p      STRB     r0,[r1,#0]
        0x00001142:    7809        .x      LDRB     r1,[r1,#0]
        0x00001144:    2011        .       MOVS     r0,#0x11
        0x00001146:    f000fba5    ....    BL       SPI_WriteReg_Bank1_Until_Success ; 0x1894
        0x0000114a:    9a09        ..      LDR      r2,[sp,#0x24]
        0x0000114c:    6810        .h      LDR      r0,[r2,#0]
        0x0000114e:    990b        ..      LDR      r1,[sp,#0x2c]
        0x00001150:    4308        .C      ORRS     r0,r0,r1
        0x00001152:    990a        ..      LDR      r1,[sp,#0x28]
        0x00001154:    4388        .C      BICS     r0,r0,r1
        0x00001156:    6010        .`      STR      r0,[r2,#0]
        0x00001158:    6828        (h      LDR      r0,[r5,#0]
        0x0000115a:    4220         B      TST      r0,r4
        0x0000115c:    d1fc        ..      BNE      0x1158 ; 0x1158
        0x0000115e:    980c        ..      LDR      r0,[sp,#0x30]
        0x00001160:    60e8        .`      STR      r0,[r5,#0xc]
        0x00001162:    4633        3F      MOV      r3,r6
        0x00001164:    6828        (h      LDR      r0,[r5,#0]
        0x00001166:    07c0        ..      LSLS     r0,r0,#31
        0x00001168:    d1fc        ..      BNE      0x1164 ; 0x1164
        0x0000116a:    69e8        .i      LDR      r0,[r5,#0x1c]
        0x0000116c:    9a09        ..      LDR      r2,[sp,#0x24]
        0x0000116e:    6810        .h      LDR      r0,[r2,#0]
        0x00001170:    990d        ..      LDR      r1,[sp,#0x34]
        0x00001172:    4308        .C      ORRS     r0,r0,r1
        0x00001174:    990c        ..      LDR      r1,[sp,#0x30]
        0x00001176:    4388        .C      BICS     r0,r0,r1
        0x00001178:    6010        .`      STR      r0,[r2,#0]
        0x0000117a:    4e9b        .N      LDR      r6,[pc,#620] ; [0x13e8] = 0x40004810
        0x0000117c:    4618        .F      MOV      r0,r3
        0x0000117e:    e005        ..      B        0x118c ; 0x118c
        0x00001180:    9b06        ..      LDR      r3,[sp,#0x18]
        0x00001182:    9805        ..      LDR      r0,[sp,#0x14]
        0x00001184:    18cb        ..      ADDS     r3,r1,r3
        0x00001186:    1c40        @.      ADDS     r0,r0,#1
        0x00001188:    2808        .(      CMP      r0,#8
        0x0000118a:    d03c        <.      BEQ      0x1206 ; 0x1206
        0x0000118c:    6831        1h      LDR      r1,[r6,#0]
        0x0000118e:    2901        .)      CMP      r1,#1
        0x00001190:    d0fc        ..      BEQ      0x118c ; 0x118c
        0x00001192:    9f09        ..      LDR      r7,[sp,#0x24]
        0x00001194:    6839        9h      LDR      r1,[r7,#0]
        0x00001196:    9a0b        ..      LDR      r2,[sp,#0x2c]
        0x00001198:    4311        .C      ORRS     r1,r1,r2
        0x0000119a:    9a0a        ..      LDR      r2,[sp,#0x28]
        0x0000119c:    4391        .C      BICS     r1,r1,r2
        0x0000119e:    6039        9`      STR      r1,[r7,#0]
        0x000011a0:    6829        )h      LDR      r1,[r5,#0]
        0x000011a2:    4221        !B      TST      r1,r4
        0x000011a4:    d1fc        ..      BNE      0x11a0 ; 0x11a0
        0x000011a6:    9907        ..      LDR      r1,[sp,#0x1c]
        0x000011a8:    60e9        .`      STR      r1,[r5,#0xc]
        0x000011aa:    6829        )h      LDR      r1,[r5,#0]
        0x000011ac:    07c9        ..      LSLS     r1,r1,#31
        0x000011ae:    d1fc        ..      BNE      0x11aa ; 0x11aa
        0x000011b0:    9005        ..      STR      r0,[sp,#0x14]
        0x000011b2:    9306        ..      STR      r3,[sp,#0x18]
        0x000011b4:    69e9        .i      LDR      r1,[r5,#0x1c]
        0x000011b6:    462f        /F      MOV      r7,r5
        0x000011b8:    3f14        .?      SUBS     r7,r7,#0x14
        0x000011ba:    6839        9h      LDR      r1,[r7,#0]
        0x000011bc:    4a8b        .J      LDR      r2,[pc,#556] ; [0x13ec] = 0xffffe0ff
        0x000011be:    4011        .@      ANDS     r1,r1,r2
        0x000011c0:    6039        9`      STR      r1,[r7,#0]
        0x000011c2:    6839        9h      LDR      r1,[r7,#0]
        0x000011c4:    f6410200    A...    MOVW     r2,#0x1800
        0x000011c8:    4311        .C      ORRS     r1,r1,r2
        0x000011ca:    6039        9`      STR      r1,[r7,#0]
        0x000011cc:    2100        .!      MOVS     r1,#0
        0x000011ce:    9108        ..      STR      r1,[sp,#0x20]
        0x000011d0:    60e9        .`      STR      r1,[r5,#0xc]
        0x000011d2:    6829        )h      LDR      r1,[r5,#0]
        0x000011d4:    07c9        ..      LSLS     r1,r1,#31
        0x000011d6:    d1fc        ..      BNE      0x11d2 ; 0x11d2
        0x000011d8:    69e9        .i      LDR      r1,[r5,#0x1c]
        0x000011da:    9809        ..      LDR      r0,[sp,#0x24]
        0x000011dc:    6802        .h      LDR      r2,[r0,#0]
        0x000011de:    9b0d        ..      LDR      r3,[sp,#0x34]
        0x000011e0:    431a        .C      ORRS     r2,r2,r3
        0x000011e2:    9b0c        ..      LDR      r3,[sp,#0x30]
        0x000011e4:    439a        .C      BICS     r2,r2,r3
        0x000011e6:    6002        .`      STR      r2,[r0,#0]
        0x000011e8:    683a        :h      LDR      r2,[r7,#0]
        0x000011ea:    4b80        .K      LDR      r3,[pc,#512] ; [0x13ec] = 0xffffe0ff
        0x000011ec:    401a        .@      ANDS     r2,r2,r3
        0x000011ee:    603a        :`      STR      r2,[r7,#0]
        0x000011f0:    683a        :h      LDR      r2,[r7,#0]
        0x000011f2:    f6400300    @...    MOVW     r3,#0x800
        0x000011f6:    431a        .C      ORRS     r2,r2,r3
        0x000011f8:    603a        :`      STR      r2,[r7,#0]
        0x000011fa:    020a        ..      LSLS     r2,r1,#8
        0x000011fc:    d5c0        ..      BPL      0x1180 ; 0x1180
        0x000011fe:    22ff        ."      MOVS     r2,#0xff
        0x00001200:    0612        ..      LSLS     r2,r2,#24
        0x00001202:    1889        ..      ADDS     r1,r1,r2
        0x00001204:    e7bc        ..      B        0x1180 ; 0x1180
        0x00001206:    9a09        ..      LDR      r2,[sp,#0x24]
        0x00001208:    6810        .h      LDR      r0,[r2,#0]
        0x0000120a:    990b        ..      LDR      r1,[sp,#0x2c]
        0x0000120c:    4308        .C      ORRS     r0,r0,r1
        0x0000120e:    990a        ..      LDR      r1,[sp,#0x28]
        0x00001210:    4388        .C      BICS     r0,r0,r1
        0x00001212:    6010        .`      STR      r0,[r2,#0]
        0x00001214:    6828        (h      LDR      r0,[r5,#0]
        0x00001216:    4220         B      TST      r0,r4
        0x00001218:    d1fc        ..      BNE      0x1214 ; 0x1214
        0x0000121a:    9803        ..      LDR      r0,[sp,#0xc]
        0x0000121c:    60e8        .`      STR      r0,[r5,#0xc]
        0x0000121e:    6828        (h      LDR      r0,[r5,#0]
        0x00001220:    07c0        ..      LSLS     r0,r0,#31
        0x00001222:    d1fc        ..      BNE      0x121e ; 0x121e
        0x00001224:    69e8        .i      LDR      r0,[r5,#0x1c]
        0x00001226:    9a09        ..      LDR      r2,[sp,#0x24]
        0x00001228:    6810        .h      LDR      r0,[r2,#0]
        0x0000122a:    990d        ..      LDR      r1,[sp,#0x34]
        0x0000122c:    4308        .C      ORRS     r0,r0,r1
        0x0000122e:    990c        ..      LDR      r1,[sp,#0x30]
        0x00001230:    4388        .C      BICS     r0,r0,r1
        0x00001232:    6010        .`      STR      r0,[r2,#0]
        0x00001234:    17d8        ..      ASRS     r0,r3,#31
        0x00001236:    0f40        @.      LSRS     r0,r0,#29
        0x00001238:    1818        ..      ADDS     r0,r3,r0
        0x0000123a:    10c0        ..      ASRS     r0,r0,#3
        0x0000123c:    9006        ..      STR      r0,[sp,#0x18]
        0x0000123e:    b2c1        ..      UXTB     r1,r0
        0x00001240:    2017        .       MOVS     r0,#0x17
        0x00001242:    f000fb27    ..'.    BL       SPI_WriteReg_Bank1_Until_Success ; 0x1894
        0x00001246:    9806        ..      LDR      r0,[sp,#0x18]
        0x00001248:    0a00        ..      LSRS     r0,r0,#8
        0x0000124a:    b2c1        ..      UXTB     r1,r0
        0x0000124c:    2018        .       MOVS     r0,#0x18
        0x0000124e:    f000fb21    ..!.    BL       SPI_WriteReg_Bank1_Until_Success ; 0x1894
        0x00001252:    9806        ..      LDR      r0,[sp,#0x18]
        0x00001254:    0c00        ..      LSRS     r0,r0,#16
        0x00001256:    b2c1        ..      UXTB     r1,r0
        0x00001258:    2019        .       MOVS     r0,#0x19
        0x0000125a:    f000fb1b    ....    BL       SPI_WriteReg_Bank1_Until_Success ; 0x1894
        0x0000125e:    9a09        ..      LDR      r2,[sp,#0x24]
        0x00001260:    6810        .h      LDR      r0,[r2,#0]
        0x00001262:    990b        ..      LDR      r1,[sp,#0x2c]
        0x00001264:    4308        .C      ORRS     r0,r0,r1
        0x00001266:    990a        ..      LDR      r1,[sp,#0x28]
        0x00001268:    4388        .C      BICS     r0,r0,r1
        0x0000126a:    6010        .`      STR      r0,[r2,#0]
        0x0000126c:    6828        (h      LDR      r0,[r5,#0]
        0x0000126e:    4220         B      TST      r0,r4
        0x00001270:    d1fc        ..      BNE      0x126c ; 0x126c
        0x00001272:    9804        ..      LDR      r0,[sp,#0x10]
        0x00001274:    60e8        .`      STR      r0,[r5,#0xc]
        0x00001276:    6828        (h      LDR      r0,[r5,#0]
        0x00001278:    07c0        ..      LSLS     r0,r0,#31
        0x0000127a:    d1fc        ..      BNE      0x1276 ; 0x1276
        0x0000127c:    69e8        .i      LDR      r0,[r5,#0x1c]
        0x0000127e:    6828        (h      LDR      r0,[r5,#0]
        0x00001280:    4220         B      TST      r0,r4
        0x00001282:    d1fc        ..      BNE      0x127e ; 0x127e
        0x00001284:    9808        ..      LDR      r0,[sp,#0x20]
        0x00001286:    60e8        .`      STR      r0,[r5,#0xc]
        0x00001288:    6828        (h      LDR      r0,[r5,#0]
        0x0000128a:    07c0        ..      LSLS     r0,r0,#31
        0x0000128c:    d1fc        ..      BNE      0x1288 ; 0x1288
        0x0000128e:    69e8        .i      LDR      r0,[r5,#0x1c]
        0x00001290:    6828        (h      LDR      r0,[r5,#0]
        0x00001292:    4220         B      TST      r0,r4
        0x00001294:    d1fc        ..      BNE      0x1290 ; 0x1290
        0x00001296:    9808        ..      LDR      r0,[sp,#0x20]
        0x00001298:    60e8        .`      STR      r0,[r5,#0xc]
        0x0000129a:    6828        (h      LDR      r0,[r5,#0]
        0x0000129c:    07c0        ..      LSLS     r0,r0,#31
        0x0000129e:    d1fc        ..      BNE      0x129a ; 0x129a
        0x000012a0:    69e8        .i      LDR      r0,[r5,#0x1c]
        0x000012a2:    6811        .h      LDR      r1,[r2,#0]
        0x000012a4:    9b0d        ..      LDR      r3,[sp,#0x34]
        0x000012a6:    4319        .C      ORRS     r1,r1,r3
        0x000012a8:    9b0c        ..      LDR      r3,[sp,#0x30]
        0x000012aa:    4399        .C      BICS     r1,r1,r3
        0x000012ac:    6011        .`      STR      r1,[r2,#0]
        0x000012ae:    217f        .!      MOVS     r1,#0x7f
        0x000012b0:    4001        .@      ANDS     r1,r1,r0
        0x000012b2:    a80e        ..      ADD      r0,sp,#0x38
        0x000012b4:    7001        .p      STRB     r1,[r0,#0]
        0x000012b6:    7801        .x      LDRB     r1,[r0,#0]
        0x000012b8:    2013        .       MOVS     r0,#0x13
        0x000012ba:    f000faeb    ....    BL       SPI_WriteReg_Bank1_Until_Success ; 0x1894
        0x000012be:    9a09        ..      LDR      r2,[sp,#0x24]
        0x000012c0:    6810        .h      LDR      r0,[r2,#0]
        0x000012c2:    990b        ..      LDR      r1,[sp,#0x2c]
        0x000012c4:    4308        .C      ORRS     r0,r0,r1
        0x000012c6:    990a        ..      LDR      r1,[sp,#0x28]
        0x000012c8:    4388        .C      BICS     r0,r0,r1
        0x000012ca:    6010        .`      STR      r0,[r2,#0]
        0x000012cc:    6828        (h      LDR      r0,[r5,#0]
        0x000012ce:    4220         B      TST      r0,r4
        0x000012d0:    d1fc        ..      BNE      0x12cc ; 0x12cc
        0x000012d2:    980c        ..      LDR      r0,[sp,#0x30]
        0x000012d4:    60e8        .`      STR      r0,[r5,#0xc]
        0x000012d6:    6828        (h      LDR      r0,[r5,#0]
        0x000012d8:    07c0        ..      LSLS     r0,r0,#31
        0x000012da:    d1fc        ..      BNE      0x12d6 ; 0x12d6
        0x000012dc:    69e8        .i      LDR      r0,[r5,#0x1c]
        0x000012de:    6810        .h      LDR      r0,[r2,#0]
        0x000012e0:    990d        ..      LDR      r1,[sp,#0x34]
        0x000012e2:    4308        .C      ORRS     r0,r0,r1
        0x000012e4:    990c        ..      LDR      r1,[sp,#0x30]
        0x000012e6:    4388        .C      BICS     r0,r0,r1
        0x000012e8:    6010        .`      STR      r0,[r2,#0]
        0x000012ea:    9808        ..      LDR      r0,[sp,#0x20]
        0x000012ec:    6831        1h      LDR      r1,[r6,#0]
        0x000012ee:    2901        .)      CMP      r1,#1
        0x000012f0:    d0fc        ..      BEQ      0x12ec ; 0x12ec
        0x000012f2:    6811        .h      LDR      r1,[r2,#0]
        0x000012f4:    9b0b        ..      LDR      r3,[sp,#0x2c]
        0x000012f6:    4319        .C      ORRS     r1,r1,r3
        0x000012f8:    9b0a        ..      LDR      r3,[sp,#0x28]
        0x000012fa:    4399        .C      BICS     r1,r1,r3
        0x000012fc:    6011        .`      STR      r1,[r2,#0]
        0x000012fe:    6829        )h      LDR      r1,[r5,#0]
        0x00001300:    4221        !B      TST      r1,r4
        0x00001302:    d1fc        ..      BNE      0x12fe ; 0x12fe
        0x00001304:    9907        ..      LDR      r1,[sp,#0x1c]
        0x00001306:    60e9        .`      STR      r1,[r5,#0xc]
        0x00001308:    6829        )h      LDR      r1,[r5,#0]
        0x0000130a:    07c9        ..      LSLS     r1,r1,#31
        0x0000130c:    d1fc        ..      BNE      0x1308 ; 0x1308
        0x0000130e:    69e9        .i      LDR      r1,[r5,#0x1c]
        0x00001310:    6839        9h      LDR      r1,[r7,#0]
        0x00001312:    4b36        6K      LDR      r3,[pc,#216] ; [0x13ec] = 0xffffe0ff
        0x00001314:    4019        .@      ANDS     r1,r1,r3
        0x00001316:    6039        9`      STR      r1,[r7,#0]
        0x00001318:    6839        9h      LDR      r1,[r7,#0]
        0x0000131a:    f6410300    A...    MOVW     r3,#0x1800
        0x0000131e:    4319        .C      ORRS     r1,r1,r3
        0x00001320:    6039        9`      STR      r1,[r7,#0]
        0x00001322:    9908        ..      LDR      r1,[sp,#0x20]
        0x00001324:    60e9        .`      STR      r1,[r5,#0xc]
        0x00001326:    6829        )h      LDR      r1,[r5,#0]
        0x00001328:    07c9        ..      LSLS     r1,r1,#31
        0x0000132a:    d1fc        ..      BNE      0x1326 ; 0x1326
        0x0000132c:    69e9        .i      LDR      r1,[r5,#0x1c]
        0x0000132e:    6811        .h      LDR      r1,[r2,#0]
        0x00001330:    9b0d        ..      LDR      r3,[sp,#0x34]
        0x00001332:    4319        .C      ORRS     r1,r1,r3
        0x00001334:    9b0c        ..      LDR      r3,[sp,#0x30]
        0x00001336:    4399        .C      BICS     r1,r1,r3
        0x00001338:    6011        .`      STR      r1,[r2,#0]
        0x0000133a:    6839        9h      LDR      r1,[r7,#0]
        0x0000133c:    4b2b        +K      LDR      r3,[pc,#172] ; [0x13ec] = 0xffffe0ff
        0x0000133e:    4019        .@      ANDS     r1,r1,r3
        0x00001340:    6039        9`      STR      r1,[r7,#0]
        0x00001342:    6839        9h      LDR      r1,[r7,#0]
        0x00001344:    f6400300    @...    MOVW     r3,#0x800
        0x00001348:    4319        .C      ORRS     r1,r1,r3
        0x0000134a:    6039        9`      STR      r1,[r7,#0]
        0x0000134c:    1c40        @.      ADDS     r0,r0,#1
        0x0000134e:    2808        .(      CMP      r0,#8
        0x00001350:    d1cc        ..      BNE      0x12ec ; 0x12ec
        0x00001352:    6810        .h      LDR      r0,[r2,#0]
        0x00001354:    990b        ..      LDR      r1,[sp,#0x2c]
        0x00001356:    4308        .C      ORRS     r0,r0,r1
        0x00001358:    990a        ..      LDR      r1,[sp,#0x28]
        0x0000135a:    4388        .C      BICS     r0,r0,r1
        0x0000135c:    6010        .`      STR      r0,[r2,#0]
        0x0000135e:    6828        (h      LDR      r0,[r5,#0]
        0x00001360:    4220         B      TST      r0,r4
        0x00001362:    d1fc        ..      BNE      0x135e ; 0x135e
        0x00001364:    9803        ..      LDR      r0,[sp,#0xc]
        0x00001366:    60e8        .`      STR      r0,[r5,#0xc]
        0x00001368:    9e02        ..      LDR      r6,[sp,#8]
        0x0000136a:    6828        (h      LDR      r0,[r5,#0]
        0x0000136c:    07c0        ..      LSLS     r0,r0,#31
        0x0000136e:    d1fc        ..      BNE      0x136a ; 0x136a
        0x00001370:    69e8        .i      LDR      r0,[r5,#0x1c]
        0x00001372:    6810        .h      LDR      r0,[r2,#0]
        0x00001374:    990d        ..      LDR      r1,[sp,#0x34]
        0x00001376:    4308        .C      ORRS     r0,r0,r1
        0x00001378:    990c        ..      LDR      r1,[sp,#0x30]
        0x0000137a:    4388        .C      BICS     r0,r0,r1
        0x0000137c:    6010        .`      STR      r0,[r2,#0]
        0x0000137e:    6810        .h      LDR      r0,[r2,#0]
        0x00001380:    990b        ..      LDR      r1,[sp,#0x2c]
        0x00001382:    4308        .C      ORRS     r0,r0,r1
        0x00001384:    990a        ..      LDR      r1,[sp,#0x28]
        0x00001386:    4388        .C      BICS     r0,r0,r1
        0x00001388:    6010        .`      STR      r0,[r2,#0]
        0x0000138a:    6828        (h      LDR      r0,[r5,#0]
        0x0000138c:    4220         B      TST      r0,r4
        0x0000138e:    d1fc        ..      BNE      0x138a ; 0x138a
        0x00001390:    9801        ..      LDR      r0,[sp,#4]
        0x00001392:    60e8        .`      STR      r0,[r5,#0xc]
        0x00001394:    6828        (h      LDR      r0,[r5,#0]
        0x00001396:    07c0        ..      LSLS     r0,r0,#31
        0x00001398:    d1fc        ..      BNE      0x1394 ; 0x1394
        0x0000139a:    69e8        .i      LDR      r0,[r5,#0x1c]
        0x0000139c:    6828        (h      LDR      r0,[r5,#0]
        0x0000139e:    4220         B      TST      r0,r4
        0x000013a0:    d1fc        ..      BNE      0x139c ; 0x139c
        0x000013a2:    2000        .       MOVS     r0,#0
        0x000013a4:    60e8        .`      STR      r0,[r5,#0xc]
        0x000013a6:    6829        )h      LDR      r1,[r5,#0]
        0x000013a8:    07c9        ..      LSLS     r1,r1,#31
        0x000013aa:    d1fc        ..      BNE      0x13a6 ; 0x13a6
        0x000013ac:    69e9        .i      LDR      r1,[r5,#0x1c]
        0x000013ae:    6829        )h      LDR      r1,[r5,#0]
        0x000013b0:    4221        !B      TST      r1,r4
        0x000013b2:    d1fc        ..      BNE      0x13ae ; 0x13ae
        0x000013b4:    60e8        .`      STR      r0,[r5,#0xc]
        0x000013b6:    6828        (h      LDR      r0,[r5,#0]
        0x000013b8:    07c0        ..      LSLS     r0,r0,#31
        0x000013ba:    d1fc        ..      BNE      0x13b6 ; 0x13b6
        0x000013bc:    69e8        .i      LDR      r0,[r5,#0x1c]
        0x000013be:    6811        .h      LDR      r1,[r2,#0]
        0x000013c0:    9b0d        ..      LDR      r3,[sp,#0x34]
        0x000013c2:    4319        .C      ORRS     r1,r1,r3
        0x000013c4:    9b0c        ..      LDR      r3,[sp,#0x30]
        0x000013c6:    4399        .C      BICS     r1,r1,r3
        0x000013c8:    6011        .`      STR      r1,[r2,#0]
        0x000013ca:    4030        0@      ANDS     r0,r0,r6
        0x000013cc:    a90e        ..      ADD      r1,sp,#0x38
        0x000013ce:    7008        .p      STRB     r0,[r1,#0]
        0x000013d0:    7809        .x      LDRB     r1,[r1,#0]
        0x000013d2:    2011        .       MOVS     r0,#0x11
        0x000013d4:    f000fa5e    ..^.    BL       SPI_WriteReg_Bank1_Until_Success ; 0x1894
        0x000013d8:    2000        .       MOVS     r0,#0
        0x000013da:    b00f        ..      ADD      sp,sp,#0x3c
        0x000013dc:    bdf0        ..      POP      {r4-r7,pc}
        0x000013de:    46c0        .F      MOV      r8,r8
    $d
    __arm_cp.8_1
        0x000013e0:    e000e010    ....    DCD    3758153744
    __arm_cp.8_2
        0x000013e4:    20000000    ...     DCD    536870912
    __arm_cp.8_3
        0x000013e8:    40004810    .H.@    DCD    1073760272
    __arm_cp.8_4
        0x000013ec:    ffffe0ff    ....    DCD    4294959359
    $t
    ProcessHardFault
        0x000013f0:    b510        ..      PUSH     {r4,lr}
        0x000013f2:    0743        C.      LSLS     r3,r0,#29
        0x000013f4:    d500        ..      BPL      0x13f8 ; ProcessHardFault + 8
        0x000013f6:    4611        .F      MOV      r1,r2
        0x000013f8:    698a        .i      LDR      r2,[r1,#0x18]
        0x000013fa:    8813        ..      LDRH     r3,[r2,#0]
        0x000013fc:    4c06        .L      LDR      r4,[pc,#24] ; [0x1418] = 0xbeab
        0x000013fe:    42a3        .B      CMP      r3,r4
        0x00001400:    d105        ..      BNE      0x140e ; ProcessHardFault + 30
        0x00001402:    4b0a        .K      LDR      r3,[pc,#40] ; [0x142c] = 0x2000000c
        0x00001404:    2400        .$      MOVS     r4,#0
        0x00001406:    601c        .`      STR      r4,[r3,#0]
        0x00001408:    1c92        ..      ADDS     r2,r2,#2
        0x0000140a:    618a        .a      STR      r2,[r1,#0x18]
        0x0000140c:    bd10        ..      POP      {r4,pc}
        0x0000140e:    a003        ..      ADR      r0,{pc}+0xe ; 0x141c
        0x00001410:    f001f8c6    ....    BL       puts ; 0x25a0
        0x00001414:    e7fe        ..      B        0x1414 ; ProcessHardFault + 36
        0x00001416:    46c0        .F      MOV      r8,r8
    $d
    __arm_cp.1_0
        0x00001418:    0000beab    ....    DCD    48811
        0x0000141c:    61482020      Ha    DCD    1632116768
        0x00001420:    61466472    rdFa    DCD    1632003186
        0x00001424:    21746c75    ult!    DCD    561278069
        0x00001428:    0000000a    ....    DCD    10
    __arm_cp.1_2
        0x0000142c:    2000000c    ...     DCD    536870924
    $t
    Reset_NADC24B
        0x00001430:    b5f0        ..      PUSH     {r4-r7,lr}
        0x00001432:    b087        ..      SUB      sp,sp,#0x1c
        0x00001434:    4f89        .O      LDR      r7,[pc,#548] ; [0x165c] = 0x40061014
        0x00001436:    463b        ;F      MOV      r3,r7
        0x00001438:    3b0c        .;      SUBS     r3,r3,#0xc
        0x0000143a:    6818        .h      LDR      r0,[r3,#0]
        0x0000143c:    2101        .!      MOVS     r1,#1
        0x0000143e:    4308        .C      ORRS     r0,r0,r1
        0x00001440:    220c        ."      MOVS     r2,#0xc
        0x00001442:    9204        ..      STR      r2,[sp,#0x10]
        0x00001444:    4390        .C      BICS     r0,r0,r2
        0x00001446:    6018        .`      STR      r0,[r3,#0]
        0x00001448:    9105        ..      STR      r1,[sp,#0x14]
        0x0000144a:    044c        L.      LSLS     r4,r1,#17
        0x0000144c:    6838        8h      LDR      r0,[r7,#0]
        0x0000144e:    4220         B      TST      r0,r4
        0x00001450:    d1fc        ..      BNE      0x144c ; Reset_NADC24B + 28
        0x00001452:    20fc        .       MOVS     r0,#0xfc
        0x00001454:    9001        ..      STR      r0,[sp,#4]
        0x00001456:    60f8        .`      STR      r0,[r7,#0xc]
        0x00001458:    6838        8h      LDR      r0,[r7,#0]
        0x0000145a:    07c0        ..      LSLS     r0,r0,#31
        0x0000145c:    d1fc        ..      BNE      0x1458 ; Reset_NADC24B + 40
        0x0000145e:    69f8        .i      LDR      r0,[r7,#0x1c]
        0x00001460:    6838        8h      LDR      r0,[r7,#0]
        0x00001462:    4220         B      TST      r0,r4
        0x00001464:    d1fc        ..      BNE      0x1460 ; Reset_NADC24B + 48
        0x00001466:    2000        .       MOVS     r0,#0
        0x00001468:    60f8        .`      STR      r0,[r7,#0xc]
        0x0000146a:    6838        8h      LDR      r0,[r7,#0]
        0x0000146c:    07c0        ..      LSLS     r0,r0,#31
        0x0000146e:    d1fc        ..      BNE      0x146a ; Reset_NADC24B + 58
        0x00001470:    69f8        .i      LDR      r0,[r7,#0x1c]
        0x00001472:    6838        8h      LDR      r0,[r7,#0]
        0x00001474:    4220         B      TST      r0,r4
        0x00001476:    d1fc        ..      BNE      0x1472 ; Reset_NADC24B + 66
        0x00001478:    2053        S       MOVS     r0,#0x53
        0x0000147a:    9000        ..      STR      r0,[sp,#0]
        0x0000147c:    60f8        .`      STR      r0,[r7,#0xc]
        0x0000147e:    6838        8h      LDR      r0,[r7,#0]
        0x00001480:    07c0        ..      LSLS     r0,r0,#31
        0x00001482:    d1fc        ..      BNE      0x147e ; Reset_NADC24B + 78
        0x00001484:    69f8        .i      LDR      r0,[r7,#0x1c]
        0x00001486:    6818        .h      LDR      r0,[r3,#0]
        0x00001488:    2105        .!      MOVS     r1,#5
        0x0000148a:    9106        ..      STR      r1,[sp,#0x18]
        0x0000148c:    4308        .C      ORRS     r0,r0,r1
        0x0000148e:    2108        .!      MOVS     r1,#8
        0x00001490:    9103        ..      STR      r1,[sp,#0xc]
        0x00001492:    4388        .C      BICS     r0,r0,r1
        0x00001494:    6018        .`      STR      r0,[r3,#0]
        0x00001496:    2600        .&      MOVS     r6,#0
        0x00001498:    9d05        ..      LDR      r5,[sp,#0x14]
        0x0000149a:    4628        (F      MOV      r0,r5
        0x0000149c:    4631        1F      MOV      r1,r6
        0x0000149e:    9302        ..      STR      r3,[sp,#8]
        0x000014a0:    f000f9f8    ....    BL       SPI_WriteReg_Bank1_Until_Success ; 0x1894
        0x000014a4:    9b02        ..      LDR      r3,[sp,#8]
        0x000014a6:    6818        .h      LDR      r0,[r3,#0]
        0x000014a8:    4328        (C      ORRS     r0,r0,r5
        0x000014aa:    9904        ..      LDR      r1,[sp,#0x10]
        0x000014ac:    4388        .C      BICS     r0,r0,r1
        0x000014ae:    6018        .`      STR      r0,[r3,#0]
        0x000014b0:    6838        8h      LDR      r0,[r7,#0]
        0x000014b2:    4220         B      TST      r0,r4
        0x000014b4:    d1fc        ..      BNE      0x14b0 ; Reset_NADC24B + 128
        0x000014b6:    205f        _       MOVS     r0,#0x5f
        0x000014b8:    60f8        .`      STR      r0,[r7,#0xc]
        0x000014ba:    6838        8h      LDR      r0,[r7,#0]
        0x000014bc:    07c0        ..      LSLS     r0,r0,#31
        0x000014be:    d1fc        ..      BNE      0x14ba ; Reset_NADC24B + 138
        0x000014c0:    69f8        .i      LDR      r0,[r7,#0x1c]
        0x000014c2:    6838        8h      LDR      r0,[r7,#0]
        0x000014c4:    4220         B      TST      r0,r4
        0x000014c6:    d1fc        ..      BNE      0x14c2 ; Reset_NADC24B + 146
        0x000014c8:    60fe        .`      STR      r6,[r7,#0xc]
        0x000014ca:    6838        8h      LDR      r0,[r7,#0]
        0x000014cc:    07c0        ..      LSLS     r0,r0,#31
        0x000014ce:    d1fc        ..      BNE      0x14ca ; Reset_NADC24B + 154
        0x000014d0:    69f8        .i      LDR      r0,[r7,#0x1c]
        0x000014d2:    6838        8h      LDR      r0,[r7,#0]
        0x000014d4:    4220         B      TST      r0,r4
        0x000014d6:    d1fc        ..      BNE      0x14d2 ; Reset_NADC24B + 162
        0x000014d8:    60fe        .`      STR      r6,[r7,#0xc]
        0x000014da:    6838        8h      LDR      r0,[r7,#0]
        0x000014dc:    07c0        ..      LSLS     r0,r0,#31
        0x000014de:    d1fc        ..      BNE      0x14da ; Reset_NADC24B + 170
        0x000014e0:    69f8        .i      LDR      r0,[r7,#0x1c]
        0x000014e2:    6819        .h      LDR      r1,[r3,#0]
        0x000014e4:    9a06        ..      LDR      r2,[sp,#0x18]
        0x000014e6:    4311        .C      ORRS     r1,r1,r2
        0x000014e8:    9a03        ..      LDR      r2,[sp,#0xc]
        0x000014ea:    4391        .C      BICS     r1,r1,r2
        0x000014ec:    6019        .`      STR      r1,[r3,#0]
        0x000014ee:    b2c1        ..      UXTB     r1,r0
        0x000014f0:    29db        .)      CMP      r1,#0xdb
        0x000014f2:    d000        ..      BEQ      0x14f6 ; Reset_NADC24B + 198
        0x000014f4:    e0ab        ..      B        0x164e ; Reset_NADC24B + 542
        0x000014f6:    6818        .h      LDR      r0,[r3,#0]
        0x000014f8:    9905        ..      LDR      r1,[sp,#0x14]
        0x000014fa:    4308        .C      ORRS     r0,r0,r1
        0x000014fc:    9904        ..      LDR      r1,[sp,#0x10]
        0x000014fe:    4388        .C      BICS     r0,r0,r1
        0x00001500:    6018        .`      STR      r0,[r3,#0]
        0x00001502:    6838        8h      LDR      r0,[r7,#0]
        0x00001504:    4220         B      TST      r0,r4
        0x00001506:    d1fc        ..      BNE      0x1502 ; Reset_NADC24B + 210
        0x00001508:    2006        .       MOVS     r0,#6
        0x0000150a:    60f8        .`      STR      r0,[r7,#0xc]
        0x0000150c:    6838        8h      LDR      r0,[r7,#0]
        0x0000150e:    07c0        ..      LSLS     r0,r0,#31
        0x00001510:    d1fc        ..      BNE      0x150c ; Reset_NADC24B + 220
        0x00001512:    69f8        .i      LDR      r0,[r7,#0x1c]
        0x00001514:    6818        .h      LDR      r0,[r3,#0]
        0x00001516:    9906        ..      LDR      r1,[sp,#0x18]
        0x00001518:    4308        .C      ORRS     r0,r0,r1
        0x0000151a:    9903        ..      LDR      r1,[sp,#0xc]
        0x0000151c:    4388        .C      BICS     r0,r0,r1
        0x0000151e:    6018        .`      STR      r0,[r3,#0]
        0x00001520:    9805        ..      LDR      r0,[sp,#0x14]
        0x00001522:    0400        ..      LSLS     r0,r0,#16
        0x00001524:    4a53        SJ      LDR      r2,[pc,#332] ; [0x1674] = 0xe000e010
        0x00001526:    4635        5F      MOV      r5,r6
        0x00001528:    f24033e8    @..3    MOVW     r3,#0x3e8
        0x0000152c:    4952        RI      LDR      r1,[pc,#328] ; [0x1678] = 0x20000000
        0x0000152e:    6809        .h      LDR      r1,[r1,#0]
        0x00001530:    4359        YC      MULS     r1,r3,r1
        0x00001532:    6051        Q`      STR      r1,[r2,#4]
        0x00001534:    6096        .`      STR      r6,[r2,#8]
        0x00001536:    9906        ..      LDR      r1,[sp,#0x18]
        0x00001538:    6011        .`      STR      r1,[r2,#0]
        0x0000153a:    6811        .h      LDR      r1,[r2,#0]
        0x0000153c:    4201        .B      TST      r1,r0
        0x0000153e:    d0fc        ..      BEQ      0x153a ; Reset_NADC24B + 266
        0x00001540:    6016        .`      STR      r6,[r2,#0]
        0x00001542:    1c6d        m.      ADDS     r5,r5,#1
        0x00001544:    2d0a        .-      CMP      r5,#0xa
        0x00001546:    d1f1        ..      BNE      0x152c ; Reset_NADC24B + 252
        0x00001548:    9d02        ..      LDR      r5,[sp,#8]
        0x0000154a:    6829        )h      LDR      r1,[r5,#0]
        0x0000154c:    9e05        ..      LDR      r6,[sp,#0x14]
        0x0000154e:    4331        1C      ORRS     r1,r1,r6
        0x00001550:    9e04        ..      LDR      r6,[sp,#0x10]
        0x00001552:    43b1        .C      BICS     r1,r1,r6
        0x00001554:    6029        )`      STR      r1,[r5,#0]
        0x00001556:    6839        9h      LDR      r1,[r7,#0]
        0x00001558:    4221        !B      TST      r1,r4
        0x0000155a:    d1fc        ..      BNE      0x1556 ; Reset_NADC24B + 294
        0x0000155c:    2102        .!      MOVS     r1,#2
        0x0000155e:    60f9        .`      STR      r1,[r7,#0xc]
        0x00001560:    6839        9h      LDR      r1,[r7,#0]
        0x00001562:    07c9        ..      LSLS     r1,r1,#31
        0x00001564:    d1fc        ..      BNE      0x1560 ; Reset_NADC24B + 304
        0x00001566:    69f9        .i      LDR      r1,[r7,#0x1c]
        0x00001568:    6829        )h      LDR      r1,[r5,#0]
        0x0000156a:    9e06        ..      LDR      r6,[sp,#0x18]
        0x0000156c:    4331        1C      ORRS     r1,r1,r6
        0x0000156e:    9e03        ..      LDR      r6,[sp,#0xc]
        0x00001570:    43b1        .C      BICS     r1,r1,r6
        0x00001572:    6029        )`      STR      r1,[r5,#0]
        0x00001574:    2500        .%      MOVS     r5,#0
        0x00001576:    462e        .F      MOV      r6,r5
        0x00001578:    f24033e8    @..3    MOVW     r3,#0x3e8
        0x0000157c:    493e        >I      LDR      r1,[pc,#248] ; [0x1678] = 0x20000000
        0x0000157e:    6809        .h      LDR      r1,[r1,#0]
        0x00001580:    4359        YC      MULS     r1,r3,r1
        0x00001582:    6051        Q`      STR      r1,[r2,#4]
        0x00001584:    6095        .`      STR      r5,[r2,#8]
        0x00001586:    9906        ..      LDR      r1,[sp,#0x18]
        0x00001588:    6011        .`      STR      r1,[r2,#0]
        0x0000158a:    6811        .h      LDR      r1,[r2,#0]
        0x0000158c:    4201        .B      TST      r1,r0
        0x0000158e:    d0fc        ..      BEQ      0x158a ; Reset_NADC24B + 346
        0x00001590:    6015        .`      STR      r5,[r2,#0]
        0x00001592:    1c76        v.      ADDS     r6,r6,#1
        0x00001594:    2e0a        ..      CMP      r6,#0xa
        0x00001596:    d1f1        ..      BNE      0x157c ; Reset_NADC24B + 332
        0x00001598:    9902        ..      LDR      r1,[sp,#8]
        0x0000159a:    6808        .h      LDR      r0,[r1,#0]
        0x0000159c:    9a05        ..      LDR      r2,[sp,#0x14]
        0x0000159e:    4310        .C      ORRS     r0,r0,r2
        0x000015a0:    9a04        ..      LDR      r2,[sp,#0x10]
        0x000015a2:    4390        .C      BICS     r0,r0,r2
        0x000015a4:    6008        .`      STR      r0,[r1,#0]
        0x000015a6:    6838        8h      LDR      r0,[r7,#0]
        0x000015a8:    4220         B      TST      r0,r4
        0x000015aa:    d1fc        ..      BNE      0x15a6 ; Reset_NADC24B + 374
        0x000015ac:    9801        ..      LDR      r0,[sp,#4]
        0x000015ae:    60f8        .`      STR      r0,[r7,#0xc]
        0x000015b0:    6838        8h      LDR      r0,[r7,#0]
        0x000015b2:    07c0        ..      LSLS     r0,r0,#31
        0x000015b4:    d1fc        ..      BNE      0x15b0 ; Reset_NADC24B + 384
        0x000015b6:    69f8        .i      LDR      r0,[r7,#0x1c]
        0x000015b8:    6838        8h      LDR      r0,[r7,#0]
        0x000015ba:    4220         B      TST      r0,r4
        0x000015bc:    d1fc        ..      BNE      0x15b8 ; Reset_NADC24B + 392
        0x000015be:    2000        .       MOVS     r0,#0
        0x000015c0:    60f8        .`      STR      r0,[r7,#0xc]
        0x000015c2:    6838        8h      LDR      r0,[r7,#0]
        0x000015c4:    07c0        ..      LSLS     r0,r0,#31
        0x000015c6:    d1fc        ..      BNE      0x15c2 ; Reset_NADC24B + 402
        0x000015c8:    69f8        .i      LDR      r0,[r7,#0x1c]
        0x000015ca:    6838        8h      LDR      r0,[r7,#0]
        0x000015cc:    4220         B      TST      r0,r4
        0x000015ce:    d1fc        ..      BNE      0x15ca ; Reset_NADC24B + 410
        0x000015d0:    9800        ..      LDR      r0,[sp,#0]
        0x000015d2:    60f8        .`      STR      r0,[r7,#0xc]
        0x000015d4:    6838        8h      LDR      r0,[r7,#0]
        0x000015d6:    07c0        ..      LSLS     r0,r0,#31
        0x000015d8:    d1fc        ..      BNE      0x15d4 ; Reset_NADC24B + 420
        0x000015da:    69f8        .i      LDR      r0,[r7,#0x1c]
        0x000015dc:    6808        .h      LDR      r0,[r1,#0]
        0x000015de:    9a06        ..      LDR      r2,[sp,#0x18]
        0x000015e0:    4310        .C      ORRS     r0,r0,r2
        0x000015e2:    9a03        ..      LDR      r2,[sp,#0xc]
        0x000015e4:    4390        .C      BICS     r0,r0,r2
        0x000015e6:    6008        .`      STR      r0,[r1,#0]
        0x000015e8:    460e        .F      MOV      r6,r1
        0x000015ea:    2100        .!      MOVS     r1,#0
        0x000015ec:    9d05        ..      LDR      r5,[sp,#0x14]
        0x000015ee:    4628        (F      MOV      r0,r5
        0x000015f0:    9100        ..      STR      r1,[sp,#0]
        0x000015f2:    f000f94f    ..O.    BL       SPI_WriteReg_Bank1_Until_Success ; 0x1894
        0x000015f6:    200a        .       MOVS     r0,#0xa
        0x000015f8:    2104        .!      MOVS     r1,#4
        0x000015fa:    f000f94b    ..K.    BL       SPI_WriteReg_Bank1_Until_Success ; 0x1894
        0x000015fe:    6830        0h      LDR      r0,[r6,#0]
        0x00001600:    4328        (C      ORRS     r0,r0,r5
        0x00001602:    9904        ..      LDR      r1,[sp,#0x10]
        0x00001604:    4388        .C      BICS     r0,r0,r1
        0x00001606:    6030        0`      STR      r0,[r6,#0]
        0x00001608:    6838        8h      LDR      r0,[r7,#0]
        0x0000160a:    4220         B      TST      r0,r4
        0x0000160c:    d1fc        ..      BNE      0x1608 ; Reset_NADC24B + 472
        0x0000160e:    9801        ..      LDR      r0,[sp,#4]
        0x00001610:    60f8        .`      STR      r0,[r7,#0xc]
        0x00001612:    6838        8h      LDR      r0,[r7,#0]
        0x00001614:    07c0        ..      LSLS     r0,r0,#31
        0x00001616:    d1fc        ..      BNE      0x1612 ; Reset_NADC24B + 482
        0x00001618:    69f8        .i      LDR      r0,[r7,#0x1c]
        0x0000161a:    9b00        ..      LDR      r3,[sp,#0]
        0x0000161c:    6838        8h      LDR      r0,[r7,#0]
        0x0000161e:    4220         B      TST      r0,r4
        0x00001620:    d1fc        ..      BNE      0x161c ; Reset_NADC24B + 492
        0x00001622:    60fb        .`      STR      r3,[r7,#0xc]
        0x00001624:    6838        8h      LDR      r0,[r7,#0]
        0x00001626:    07c0        ..      LSLS     r0,r0,#31
        0x00001628:    d1fc        ..      BNE      0x1624 ; Reset_NADC24B + 500
        0x0000162a:    69f8        .i      LDR      r0,[r7,#0x1c]
        0x0000162c:    6838        8h      LDR      r0,[r7,#0]
        0x0000162e:    4220         B      TST      r0,r4
        0x00001630:    d1fc        ..      BNE      0x162c ; Reset_NADC24B + 508
        0x00001632:    20ca        .       MOVS     r0,#0xca
        0x00001634:    60f8        .`      STR      r0,[r7,#0xc]
        0x00001636:    6838        8h      LDR      r0,[r7,#0]
        0x00001638:    07c0        ..      LSLS     r0,r0,#31
        0x0000163a:    d1fc        ..      BNE      0x1636 ; Reset_NADC24B + 518
        0x0000163c:    69f8        .i      LDR      r0,[r7,#0x1c]
        0x0000163e:    9902        ..      LDR      r1,[sp,#8]
        0x00001640:    6808        .h      LDR      r0,[r1,#0]
        0x00001642:    9a06        ..      LDR      r2,[sp,#0x18]
        0x00001644:    4310        .C      ORRS     r0,r0,r2
        0x00001646:    9a03        ..      LDR      r2,[sp,#0xc]
        0x00001648:    4390        .C      BICS     r0,r0,r2
        0x0000164a:    6008        .`      STR      r0,[r1,#0]
        0x0000164c:    e003        ..      B        0x1656 ; Reset_NADC24B + 550
        0x0000164e:    a004        ..      ADR      r0,{pc}+0x12 ; 0x1660
        0x00001650:    f000fb1a    ....    BL       __0printf ; 0x1c88
        0x00001654:    23ff        .#      MOVS     r3,#0xff
        0x00001656:    4618        .F      MOV      r0,r3
        0x00001658:    b007        ..      ADD      sp,sp,#0x1c
        0x0000165a:    bdf0        ..      POP      {r4-r7,pc}
    $d
    __arm_cp.5_0
        0x0000165c:    40061014    ...@    DCD    1074139156
        0x00001660:    4d204449    ID M    DCD    1293960265
        0x00001664:    616d7369    isma    DCD    1634562921
        0x00001668:    3a686374    tch:    DCD    979919732
        0x0000166c:    25783020     0x%    DCD    628633632
        0x00001670:    00000a58    X...    DCD    2648
    __arm_cp.5_2
        0x00001674:    e000e010    ....    DCD    3758153744
    __arm_cp.5_3
        0x00001678:    20000000    ...     DCD    536870912
    $t
    SH_Return
        0x0000167c:    2000        .       MOVS     r0,#0
        0x0000167e:    4770        pG      BX       lr
    SPI_Open
        0x00001680:    b5f0        ..      PUSH     {r4-r7,lr}
        0x00001682:    b081        ..      SUB      sp,sp,#4
        0x00001684:    461f        .F      MOV      r7,r3
        0x00001686:    4615        .F      MOV      r5,r2
        0x00001688:    460e        .F      MOV      r6,r1
        0x0000168a:    4604        .F      MOV      r4,r0
        0x0000168c:    6e00        .n      LDR      r0,[r0,#0x60]
        0x0000168e:    2101        .!      MOVS     r1,#1
        0x00001690:    9100        ..      STR      r1,[sp,#0]
        0x00001692:    4388        .C      BICS     r0,r0,r1
        0x00001694:    6620         f      STR      r0,[r4,#0x60]
        0x00001696:    f7fff8f5    ....    BL       CLK_GetHCLKFreq ; 0x884
        0x0000169a:    2100        .!      MOVS     r1,#0
        0x0000169c:    60a1        .`      STR      r1,[r4,#8]
        0x0000169e:    2f20         /      CMP      r7,#0x20
        0x000016a0:    d000        ..      BEQ      0x16a4 ; SPI_Open + 36
        0x000016a2:    0239        9.      LSLS     r1,r7,#8
        0x000016a4:    b196        ..      CBZ      r6,0x16cc ; SPI_Open + 76
        0x000016a6:    430e        .C      ORRS     r6,r6,r1
        0x000016a8:    432e        .C      ORRS     r6,r6,r5
        0x000016aa:    9800        ..      LDR      r0,[sp,#0]
        0x000016ac:    4306        .C      ORRS     r6,r6,r0
        0x000016ae:    6026        &`      STR      r6,[r4,#0]
        0x000016b0:    2100        .!      MOVS     r1,#0
        0x000016b2:    6061        a`      STR      r1,[r4,#4]
        0x000016b4:    4849        IH      LDR      r0,[pc,#292] ; [0x17dc] = 0x40062000
        0x000016b6:    4284        .B      CMP      r4,r0
        0x000016b8:    d01a        ..      BEQ      0x16f0 ; SPI_Open + 112
        0x000016ba:    4849        IH      LDR      r0,[pc,#292] ; [0x17e0] = 0x40061000
        0x000016bc:    4284        .B      CMP      r4,r0
        0x000016be:    d17e        ~.      BNE      0x17be ; SPI_Open + 318
        0x000016c0:    4848        HH      LDR      r0,[pc,#288] ; [0x17e4] = 0x40000218
        0x000016c2:    6801        .h      LDR      r1,[r0,#0]
        0x000016c4:    2220         "      MOVS     r2,#0x20
        0x000016c6:    430a        .C      ORRS     r2,r2,r1
        0x000016c8:    2110        .!      MOVS     r1,#0x10
        0x000016ca:    e016        ..      B        0x16fa ; SPI_Open + 122
        0x000016cc:    9e06        ..      LDR      r6,[sp,#0x18]
        0x000016ce:    430d        .C      ORRS     r5,r5,r1
        0x000016d0:    9900        ..      LDR      r1,[sp,#0]
        0x000016d2:    430d        .C      ORRS     r5,r5,r1
        0x000016d4:    6025        %`      STR      r5,[r4,#0]
        0x000016d6:    4286        .B      CMP      r6,r0
        0x000016d8:    d320         .      BCC      0x171c ; SPI_Open + 156
        0x000016da:    21c0        .!      MOVS     r1,#0xc0
        0x000016dc:    43c9        .C      MVNS     r1,r1
        0x000016de:    4a40        @J      LDR      r2,[pc,#256] ; [0x17e0] = 0x40061000
        0x000016e0:    4294        .B      CMP      r4,r2
        0x000016e2:    d012        ..      BEQ      0x170a ; SPI_Open + 138
        0x000016e4:    4a3d        =J      LDR      r2,[pc,#244] ; [0x17dc] = 0x40062000
        0x000016e6:    4294        .B      CMP      r4,r2
        0x000016e8:    d131        1.      BNE      0x174e ; SPI_Open + 206
        0x000016ea:    4625        %F      MOV      r5,r4
        0x000016ec:    2280        ."      MOVS     r2,#0x80
        0x000016ee:    e00f        ..      B        0x1710 ; SPI_Open + 144
        0x000016f0:    483c        <H      LDR      r0,[pc,#240] ; [0x17e4] = 0x40000218
        0x000016f2:    6801        .h      LDR      r1,[r0,#0]
        0x000016f4:    2280        ."      MOVS     r2,#0x80
        0x000016f6:    430a        .C      ORRS     r2,r2,r1
        0x000016f8:    2140        @!      MOVS     r1,#0x40
        0x000016fa:    438a        .C      BICS     r2,r2,r1
        0x000016fc:    6002        .`      STR      r2,[r0,#0]
        0x000016fe:    b001        ..      ADD      sp,sp,#4
        0x00001700:    bcf0        ..      POP      {r4-r7}
        0x00001702:    bc01        ..      POP      {r0}
        0x00001704:    4686        .F      MOV      lr,r0
        0x00001706:    f7ffb8f7    ....    B        CLK_GetPCLK1Freq ; 0x8f8
        0x0000170a:    4625        %F      MOV      r5,r4
        0x0000170c:    3190        .1      ADDS     r1,r1,#0x90
        0x0000170e:    2220         "      MOVS     r2,#0x20
        0x00001710:    4b34        4K      LDR      r3,[pc,#208] ; [0x17e4] = 0x40000218
        0x00001712:    681c        .h      LDR      r4,[r3,#0]
        0x00001714:    400c        .@      ANDS     r4,r4,r1
        0x00001716:    4314        .C      ORRS     r4,r4,r2
        0x00001718:    601c        .`      STR      r4,[r3,#0]
        0x0000171a:    462c        ,F      MOV      r4,r5
        0x0000171c:    492f        /I      LDR      r1,[pc,#188] ; [0x17dc] = 0x40062000
        0x0000171e:    428c        .B      CMP      r4,r1
        0x00001720:    d019        ..      BEQ      0x1756 ; SPI_Open + 214
        0x00001722:    492f        /I      LDR      r1,[pc,#188] ; [0x17e0] = 0x40061000
        0x00001724:    428c        .B      CMP      r4,r1
        0x00001726:    d112        ..      BNE      0x174e ; SPI_Open + 206
        0x00001728:    492e        .I      LDR      r1,[pc,#184] ; [0x17e4] = 0x40000218
        0x0000172a:    680a        .h      LDR      r2,[r1,#0]
        0x0000172c:    0692        ..      LSLS     r2,r2,#26
        0x0000172e:    0f92        ..      LSRS     r2,r2,#30
        0x00001730:    d022        ".      BEQ      0x1778 ; SPI_Open + 248
        0x00001732:    4625        %F      MOV      r5,r4
        0x00001734:    680b        .h      LDR      r3,[r1,#0]
        0x00001736:    2230        0"      MOVS     r2,#0x30
        0x00001738:    4013        .@      ANDS     r3,r3,r2
        0x0000173a:    2b10        .+      CMP      r3,#0x10
        0x0000173c:    d016        ..      BEQ      0x176c ; SPI_Open + 236
        0x0000173e:    6809        .h      LDR      r1,[r1,#0]
        0x00001740:    4011        .@      ANDS     r1,r1,r2
        0x00001742:    2920         )      CMP      r1,#0x20
        0x00001744:    d120         .      BNE      0x1788 ; SPI_Open + 264
        0x00001746:    4604        .F      MOV      r4,r0
        0x00001748:    f7fff8d6    ....    BL       CLK_GetPCLK1Freq ; 0x8f8
        0x0000174c:    e011        ..      B        0x1772 ; SPI_Open + 242
        0x0000174e:    2100        .!      MOVS     r1,#0
        0x00001750:    4286        .B      CMP      r6,r0
        0x00001752:    d31d        ..      BCC      0x1790 ; SPI_Open + 272
        0x00001754:    e031        1.      B        0x17ba ; SPI_Open + 314
        0x00001756:    4923        #I      LDR      r1,[pc,#140] ; [0x17e4] = 0x40000218
        0x00001758:    680a        .h      LDR      r2,[r1,#0]
        0x0000175a:    0612        ..      LSLS     r2,r2,#24
        0x0000175c:    0f92        ..      LSRS     r2,r2,#30
        0x0000175e:    d00b        ..      BEQ      0x1778 ; SPI_Open + 248
        0x00001760:    4625        %F      MOV      r5,r4
        0x00001762:    680b        .h      LDR      r3,[r1,#0]
        0x00001764:    22c0        ."      MOVS     r2,#0xc0
        0x00001766:    4013        .@      ANDS     r3,r3,r2
        0x00001768:    2b40        @+      CMP      r3,#0x40
        0x0000176a:    d109        ..      BNE      0x1780 ; SPI_Open + 256
        0x0000176c:    4604        .F      MOV      r4,r0
        0x0000176e:    f7fff8f9    ....    BL       CLK_GetPLLClockFreq ; 0x964
        0x00001772:    4601        .F      MOV      r1,r0
        0x00001774:    4620         F      MOV      r0,r4
        0x00001776:    e008        ..      B        0x178a ; SPI_Open + 266
        0x00001778:    491b        .I      LDR      r1,[pc,#108] ; [0x17e8] = 0xb71b00
        0x0000177a:    4286        .B      CMP      r6,r0
        0x0000177c:    d308        ..      BCC      0x1790 ; SPI_Open + 272
        0x0000177e:    e01c        ..      B        0x17ba ; SPI_Open + 314
        0x00001780:    6809        .h      LDR      r1,[r1,#0]
        0x00001782:    4011        .@      ANDS     r1,r1,r2
        0x00001784:    2980        .)      CMP      r1,#0x80
        0x00001786:    d0de        ..      BEQ      0x1746 ; SPI_Open + 198
        0x00001788:    4918        .I      LDR      r1,[pc,#96] ; [0x17ec] = 0x2dc6c00
        0x0000178a:    462c        ,F      MOV      r4,r5
        0x0000178c:    4286        .B      CMP      r6,r0
        0x0000178e:    d214        ..      BCS      0x17ba ; SPI_Open + 314
        0x00001790:    428e        .B      CMP      r6,r1
        0x00001792:    d212        ..      BCS      0x17ba ; SPI_Open + 314
        0x00001794:    4816        .H      LDR      r0,[pc,#88] ; [0x17f0] = 0x1ff
        0x00001796:    b1ae        ..      CBZ      r6,0x17c4 ; SPI_Open + 324
        0x00001798:    220a        ."      MOVS     r2,#0xa
        0x0000179a:    4625        %F      MOV      r5,r4
        0x0000179c:    4613        .F      MOV      r3,r2
        0x0000179e:    434b        KC      MULS     r3,r1,r3
        0x000017a0:    fbb3f3f6    ....    UDIV     r3,r3,r6
        0x000017a4:    1d5b        [.      ADDS     r3,r3,#5
        0x000017a6:    fbb3f3f2    ....    UDIV     r3,r3,r2
        0x000017aa:    1e5c        \.      SUBS     r4,r3,#1
        0x000017ac:    686a        jh      LDR      r2,[r5,#4]
        0x000017ae:    4284        .B      CMP      r4,r0
        0x000017b0:    d90d        ..      BLS      0x17ce ; SPI_Open + 334
        0x000017b2:    4302        .C      ORRS     r2,r2,r0
        0x000017b4:    606a        j`      STR      r2,[r5,#4]
        0x000017b6:    0a49        I.      LSRS     r1,r1,#9
        0x000017b8:    e001        ..      B        0x17be ; SPI_Open + 318
        0x000017ba:    2000        .       MOVS     r0,#0
        0x000017bc:    6060        ``      STR      r0,[r4,#4]
        0x000017be:    4608        .F      MOV      r0,r1
        0x000017c0:    b001        ..      ADD      sp,sp,#4
        0x000017c2:    bdf0        ..      POP      {r4-r7,pc}
        0x000017c4:    6862        bh      LDR      r2,[r4,#4]
        0x000017c6:    4302        .C      ORRS     r2,r2,r0
        0x000017c8:    6062        b`      STR      r2,[r4,#4]
        0x000017ca:    0a49        I.      LSRS     r1,r1,#9
        0x000017cc:    e7f7        ..      B        0x17be ; SPI_Open + 318
        0x000017ce:    4809        .H      LDR      r0,[pc,#36] ; [0x17f4] = 0xfffffe00
        0x000017d0:    4002        .@      ANDS     r2,r2,r0
        0x000017d2:    4322        "C      ORRS     r2,r2,r4
        0x000017d4:    606a        j`      STR      r2,[r5,#4]
        0x000017d6:    fbb1f1f3    ....    UDIV     r1,r1,r3
        0x000017da:    e7f0        ..      B        0x17be ; SPI_Open + 318
    $d
    __arm_cp.0_0
        0x000017dc:    40062000    . .@    DCD    1074143232
    __arm_cp.0_1
        0x000017e0:    40061000    ...@    DCD    1074139136
    __arm_cp.0_2
        0x000017e4:    40000218    ...@    DCD    1073742360
    __arm_cp.0_3
        0x000017e8:    00b71b00    ....    DCD    12000000
    __arm_cp.0_4
        0x000017ec:    02dc6c00    .l..    DCD    48000000
    __arm_cp.0_5
        0x000017f0:    000001ff    ....    DCD    511
    __arm_cp.0_6
        0x000017f4:    fffffe00    ....    DCD    4294966784
    $t
    SPI_SetChannel_and_ReadADCData
        0x000017f8:    b5f0        ..      PUSH     {r4-r7,lr}
        0x000017fa:    4a58        XJ      LDR      r2,[pc,#352] ; [0x195c] = 0x40061014
        0x000017fc:    4611        .F      MOV      r1,r2
        0x000017fe:    390c        .9      SUBS     r1,r1,#0xc
        0x00001800:    680b        .h      LDR      r3,[r1,#0]
        0x00001802:    2401        .$      MOVS     r4,#1
        0x00001804:    4323        #C      ORRS     r3,r3,r4
        0x00001806:    250c        .%      MOVS     r5,#0xc
        0x00001808:    43ab        .C      BICS     r3,r3,r5
        0x0000180a:    600b        .`      STR      r3,[r1,#0]
        0x0000180c:    0463        c.      LSLS     r3,r4,#17
        0x0000180e:    6814        .h      LDR      r4,[r2,#0]
        0x00001810:    421c        .B      TST      r4,r3
        0x00001812:    d1fc        ..      BNE      0x180e ; SPI_SetChannel_and_ReadADCData + 22
        0x00001814:    2471        q$      MOVS     r4,#0x71
        0x00001816:    60d4        .`      STR      r4,[r2,#0xc]
        0x00001818:    6814        .h      LDR      r4,[r2,#0]
        0x0000181a:    07e4        ..      LSLS     r4,r4,#31
        0x0000181c:    d1fc        ..      BNE      0x1818 ; SPI_SetChannel_and_ReadADCData + 32
        0x0000181e:    69d4        .i      LDR      r4,[r2,#0x1c]
        0x00001820:    6814        .h      LDR      r4,[r2,#0]
        0x00001822:    421c        .B      TST      r4,r3
        0x00001824:    d1fc        ..      BNE      0x1820 ; SPI_SetChannel_and_ReadADCData + 40
        0x00001826:    2400        .$      MOVS     r4,#0
        0x00001828:    60d4        .`      STR      r4,[r2,#0xc]
        0x0000182a:    6815        .h      LDR      r5,[r2,#0]
        0x0000182c:    07ed        ..      LSLS     r5,r5,#31
        0x0000182e:    d1fc        ..      BNE      0x182a ; SPI_SetChannel_and_ReadADCData + 50
        0x00001830:    69d5        .i      LDR      r5,[r2,#0x1c]
        0x00001832:    6815        .h      LDR      r5,[r2,#0]
        0x00001834:    421d        .B      TST      r5,r3
        0x00001836:    d1fc        ..      BNE      0x1832 ; SPI_SetChannel_and_ReadADCData + 58
        0x00001838:    60d0        .`      STR      r0,[r2,#0xc]
        0x0000183a:    6810        .h      LDR      r0,[r2,#0]
        0x0000183c:    07c0        ..      LSLS     r0,r0,#31
        0x0000183e:    d1fc        ..      BNE      0x183a ; SPI_SetChannel_and_ReadADCData + 66
        0x00001840:    69d0        .i      LDR      r0,[r2,#0x1c]
        0x00001842:    6810        .h      LDR      r0,[r2,#0]
        0x00001844:    4218        .B      TST      r0,r3
        0x00001846:    d1fc        ..      BNE      0x1842 ; SPI_SetChannel_and_ReadADCData + 74
        0x00001848:    2508        .%      MOVS     r5,#8
        0x0000184a:    60d5        .`      STR      r5,[r2,#0xc]
        0x0000184c:    6810        .h      LDR      r0,[r2,#0]
        0x0000184e:    07c0        ..      LSLS     r0,r0,#31
        0x00001850:    d1fc        ..      BNE      0x184c ; SPI_SetChannel_and_ReadADCData + 84
        0x00001852:    69d0        .i      LDR      r0,[r2,#0x1c]
        0x00001854:    4613        .F      MOV      r3,r2
        0x00001856:    3b14        .;      SUBS     r3,r3,#0x14
        0x00001858:    6818        .h      LDR      r0,[r3,#0]
        0x0000185a:    4e0d        .N      LDR      r6,[pc,#52] ; [0x1890] = 0xffffe0ff
        0x0000185c:    4030        0@      ANDS     r0,r0,r6
        0x0000185e:    6018        .`      STR      r0,[r3,#0]
        0x00001860:    6818        .h      LDR      r0,[r3,#0]
        0x00001862:    f6410700    A...    MOVW     r7,#0x1800
        0x00001866:    4307        .C      ORRS     r7,r7,r0
        0x00001868:    601f        .`      STR      r7,[r3,#0]
        0x0000186a:    60d4        .`      STR      r4,[r2,#0xc]
        0x0000186c:    6810        .h      LDR      r0,[r2,#0]
        0x0000186e:    07c0        ..      LSLS     r0,r0,#31
        0x00001870:    d1fc        ..      BNE      0x186c ; SPI_SetChannel_and_ReadADCData + 116
        0x00001872:    69d0        .i      LDR      r0,[r2,#0x1c]
        0x00001874:    680a        .h      LDR      r2,[r1,#0]
        0x00001876:    2405        .$      MOVS     r4,#5
        0x00001878:    4314        .C      ORRS     r4,r4,r2
        0x0000187a:    43ac        .C      BICS     r4,r4,r5
        0x0000187c:    600c        .`      STR      r4,[r1,#0]
        0x0000187e:    6819        .h      LDR      r1,[r3,#0]
        0x00001880:    4031        1@      ANDS     r1,r1,r6
        0x00001882:    6019        .`      STR      r1,[r3,#0]
        0x00001884:    6819        .h      LDR      r1,[r3,#0]
        0x00001886:    f6400200    @...    MOVW     r2,#0x800
        0x0000188a:    430a        .C      ORRS     r2,r2,r1
        0x0000188c:    601a        .`      STR      r2,[r3,#0]
        0x0000188e:    bdf0        ..      POP      {r4-r7,pc}
    $d
    __arm_cp.12_1
        0x00001890:    ffffe0ff    ....    DCD    4294959359
    $t
    SPI_WriteReg_Bank1_Until_Success
        0x00001894:    b5f0        ..      PUSH     {r4-r7,lr}
        0x00001896:    b085        ..      SUB      sp,sp,#0x14
        0x00001898:    9104        ..      STR      r1,[sp,#0x10]
        0x0000189a:    211f        .!      MOVS     r1,#0x1f
        0x0000189c:    4001        .@      ANDS     r1,r1,r0
        0x0000189e:    4608        .F      MOV      r0,r1
        0x000018a0:    3060        `0      ADDS     r0,r0,#0x60
        0x000018a2:    9000        ..      STR      r0,[sp,#0]
        0x000018a4:    3140        @1      ADDS     r1,r1,#0x40
        0x000018a6:    9101        ..      STR      r1,[sp,#4]
        0x000018a8:    2301        .#      MOVS     r3,#1
        0x000018aa:    045c        \.      LSLS     r4,r3,#17
        0x000018ac:    4d2b        +M      LDR      r5,[pc,#172] ; [0x195c] = 0x40061014
        0x000018ae:    462e        .F      MOV      r6,r5
        0x000018b0:    3e0c        .>      SUBS     r6,r6,#0xc
        0x000018b2:    200c        .       MOVS     r0,#0xc
        0x000018b4:    9003        ..      STR      r0,[sp,#0xc]
        0x000018b6:    9302        ..      STR      r3,[sp,#8]
        0x000018b8:    6830        0h      LDR      r0,[r6,#0]
        0x000018ba:    4318        .C      ORRS     r0,r0,r3
        0x000018bc:    9903        ..      LDR      r1,[sp,#0xc]
        0x000018be:    4388        .C      BICS     r0,r0,r1
        0x000018c0:    6030        0`      STR      r0,[r6,#0]
        0x000018c2:    6828        (h      LDR      r0,[r5,#0]
        0x000018c4:    4220         B      TST      r0,r4
        0x000018c6:    d1fc        ..      BNE      0x18c2 ; SPI_WriteReg_Bank1_Until_Success + 46
        0x000018c8:    9801        ..      LDR      r0,[sp,#4]
        0x000018ca:    60e8        .`      STR      r0,[r5,#0xc]
        0x000018cc:    6828        (h      LDR      r0,[r5,#0]
        0x000018ce:    07c0        ..      LSLS     r0,r0,#31
        0x000018d0:    d1fc        ..      BNE      0x18cc ; SPI_WriteReg_Bank1_Until_Success + 56
        0x000018d2:    69e8        .i      LDR      r0,[r5,#0x1c]
        0x000018d4:    6828        (h      LDR      r0,[r5,#0]
        0x000018d6:    4220         B      TST      r0,r4
        0x000018d8:    d1fc        ..      BNE      0x18d4 ; SPI_WriteReg_Bank1_Until_Success + 64
        0x000018da:    2000        .       MOVS     r0,#0
        0x000018dc:    60e8        .`      STR      r0,[r5,#0xc]
        0x000018de:    682a        *h      LDR      r2,[r5,#0]
        0x000018e0:    07d2        ..      LSLS     r2,r2,#31
        0x000018e2:    d1fc        ..      BNE      0x18de ; SPI_WriteReg_Bank1_Until_Success + 74
        0x000018e4:    69ea        .i      LDR      r2,[r5,#0x1c]
        0x000018e6:    682a        *h      LDR      r2,[r5,#0]
        0x000018e8:    4222        "B      TST      r2,r4
        0x000018ea:    d1fc        ..      BNE      0x18e6 ; SPI_WriteReg_Bank1_Until_Success + 82
        0x000018ec:    60e8        .`      STR      r0,[r5,#0xc]
        0x000018ee:    682a        *h      LDR      r2,[r5,#0]
        0x000018f0:    07d2        ..      LSLS     r2,r2,#31
        0x000018f2:    d1fc        ..      BNE      0x18ee ; SPI_WriteReg_Bank1_Until_Success + 90
        0x000018f4:    69e9        .i      LDR      r1,[r5,#0x1c]
        0x000018f6:    6837        7h      LDR      r7,[r6,#0]
        0x000018f8:    2205        ."      MOVS     r2,#5
        0x000018fa:    4317        .C      ORRS     r7,r7,r2
        0x000018fc:    2308        .#      MOVS     r3,#8
        0x000018fe:    439f        .C      BICS     r7,r7,r3
        0x00001900:    6037        7`      STR      r7,[r6,#0]
        0x00001902:    b2c9        ..      UXTB     r1,r1
        0x00001904:    9f04        ..      LDR      r7,[sp,#0x10]
        0x00001906:    428f        .B      CMP      r7,r1
        0x00001908:    d025        %.      BEQ      0x1956 ; SPI_WriteReg_Bank1_Until_Success + 194
        0x0000190a:    6831        1h      LDR      r1,[r6,#0]
        0x0000190c:    9f02        ..      LDR      r7,[sp,#8]
        0x0000190e:    4339        9C      ORRS     r1,r1,r7
        0x00001910:    9f03        ..      LDR      r7,[sp,#0xc]
        0x00001912:    43b9        .C      BICS     r1,r1,r7
        0x00001914:    6031        1`      STR      r1,[r6,#0]
        0x00001916:    6829        )h      LDR      r1,[r5,#0]
        0x00001918:    4221        !B      TST      r1,r4
        0x0000191a:    d1fc        ..      BNE      0x1916 ; SPI_WriteReg_Bank1_Until_Success + 130
        0x0000191c:    9900        ..      LDR      r1,[sp,#0]
        0x0000191e:    60e9        .`      STR      r1,[r5,#0xc]
        0x00001920:    6829        )h      LDR      r1,[r5,#0]
        0x00001922:    07c9        ..      LSLS     r1,r1,#31
        0x00001924:    d1fc        ..      BNE      0x1920 ; SPI_WriteReg_Bank1_Until_Success + 140
        0x00001926:    69e9        .i      LDR      r1,[r5,#0x1c]
        0x00001928:    6829        )h      LDR      r1,[r5,#0]
        0x0000192a:    4221        !B      TST      r1,r4
        0x0000192c:    d1fc        ..      BNE      0x1928 ; SPI_WriteReg_Bank1_Until_Success + 148
        0x0000192e:    60e8        .`      STR      r0,[r5,#0xc]
        0x00001930:    6828        (h      LDR      r0,[r5,#0]
        0x00001932:    07c0        ..      LSLS     r0,r0,#31
        0x00001934:    d1fc        ..      BNE      0x1930 ; SPI_WriteReg_Bank1_Until_Success + 156
        0x00001936:    69e8        .i      LDR      r0,[r5,#0x1c]
        0x00001938:    6828        (h      LDR      r0,[r5,#0]
        0x0000193a:    4220         B      TST      r0,r4
        0x0000193c:    d1fc        ..      BNE      0x1938 ; SPI_WriteReg_Bank1_Until_Success + 164
        0x0000193e:    9804        ..      LDR      r0,[sp,#0x10]
        0x00001940:    60e8        .`      STR      r0,[r5,#0xc]
        0x00001942:    6828        (h      LDR      r0,[r5,#0]
        0x00001944:    07c0        ..      LSLS     r0,r0,#31
        0x00001946:    d1fc        ..      BNE      0x1942 ; SPI_WriteReg_Bank1_Until_Success + 174
        0x00001948:    69e8        .i      LDR      r0,[r5,#0x1c]
        0x0000194a:    6830        0h      LDR      r0,[r6,#0]
        0x0000194c:    4310        .C      ORRS     r0,r0,r2
        0x0000194e:    4398        .C      BICS     r0,r0,r3
        0x00001950:    6030        0`      STR      r0,[r6,#0]
        0x00001952:    9b02        ..      LDR      r3,[sp,#8]
        0x00001954:    e7b0        ..      B        0x18b8 ; SPI_WriteReg_Bank1_Until_Success + 36
        0x00001956:    2000        .       MOVS     r0,#0
        0x00001958:    b005        ..      ADD      sp,sp,#0x14
        0x0000195a:    bdf0        ..      POP      {r4-r7,pc}
    $d
    __arm_cp.2_0
        0x0000195c:    40061014    ...@    DCD    1074139156
    $t
    SYS_Init
        0x00001960:    b5f0        ..      PUSH     {r4-r7,lr}
        0x00001962:    b083        ..      SUB      sp,sp,#0xc
        0x00001964:    2004        .       MOVS     r0,#4
        0x00001966:    9002        ..      STR      r0,[sp,#8]
        0x00001968:    f7feff86    ....    BL       CLK_EnableXtalRC ; 0x878
        0x0000196c:    2010        .       MOVS     r0,#0x10
        0x0000196e:    9001        ..      STR      r0,[sp,#4]
        0x00001970:    f7fff880    ....    BL       CLK_WaitClockReady ; 0xa74
        0x00001974:    2007        .       MOVS     r0,#7
        0x00001976:    2600        .&      MOVS     r6,#0
        0x00001978:    4631        1F      MOV      r1,r6
        0x0000197a:    f7fff81f    ....    BL       CLK_SetHCLK ; 0x9bc
        0x0000197e:    481f        .H      LDR      r0,[pc,#124] ; [0x19fc] = 0x40000234
        0x00001980:    6006        .`      STR      r6,[r0,#0]
        0x00001982:    2503        .%      MOVS     r5,#3
        0x00001984:    0629        ).      LSLS     r1,r5,#24
        0x00001986:    4f1e        .O      LDR      r7,[pc,#120] ; [0x1a00] = 0x5f803d10
        0x00001988:    4638        8F      MOV      r0,r7
        0x0000198a:    4632        2F      MOV      r2,r6
        0x0000198c:    f7fff844    ..D.    BL       CLK_SetModuleClock ; 0xa18
        0x00001990:    4c1c        .L      LDR      r4,[pc,#112] ; [0x1a04] = 0x6640000d
        0x00001992:    2120         !      MOVS     r1,#0x20
        0x00001994:    4620         F      MOV      r0,r4
        0x00001996:    4632        2F      MOV      r2,r6
        0x00001998:    f7fff83e    ..>.    BL       CLK_SetModuleClock ; 0xa18
        0x0000199c:    4638        8F      MOV      r0,r7
        0x0000199e:    f7feff59    ..Y.    BL       CLK_EnableModuleClock ; 0x854
        0x000019a2:    4620         F      MOV      r0,r4
        0x000019a4:    f7feff56    ..V.    BL       CLK_EnableModuleClock ; 0x854
        0x000019a8:    2018        .       MOVS     r0,#0x18
        0x000019aa:    f7feff53    ..S.    BL       CLK_EnableModuleClock ; 0x854
        0x000019ae:    210f        .!      MOVS     r1,#0xf
        0x000019b0:    040a        ..      LSLS     r2,r1,#16
        0x000019b2:    4815        .H      LDR      r0,[pc,#84] ; [0x1a08] = 0x40000030
        0x000019b4:    68c3        .h      LDR      r3,[r0,#0xc]
        0x000019b6:    4393        .C      BICS     r3,r3,r2
        0x000019b8:    046a        j.      LSLS     r2,r5,#17
        0x000019ba:    189a        ..      ADDS     r2,r3,r2
        0x000019bc:    60c2        .`      STR      r2,[r0,#0xc]
        0x000019be:    0509        ..      LSLS     r1,r1,#20
        0x000019c0:    68c2        .h      LDR      r2,[r0,#0xc]
        0x000019c2:    438a        .C      BICS     r2,r2,r1
        0x000019c4:    0569        i.      LSLS     r1,r5,#21
        0x000019c6:    1851        Q.      ADDS     r1,r2,r1
        0x000019c8:    60c1        .`      STR      r1,[r0,#0xc]
        0x000019ca:    6801        .h      LDR      r1,[r0,#0]
        0x000019cc:    4a0f        .J      LDR      r2,[pc,#60] ; [0x1a0c] = 0xffff0000
        0x000019ce:    400a        .@      ANDS     r2,r2,r1
        0x000019d0:    6002        .`      STR      r2,[r0,#0]
        0x000019d2:    6801        .h      LDR      r1,[r0,#0]
        0x000019d4:    4a0e        .J      LDR      r2,[pc,#56] ; [0x1a10] = 0x4444
        0x000019d6:    430a        .C      ORRS     r2,r2,r1
        0x000019d8:    6002        .`      STR      r2,[r0,#0]
        0x000019da:    4c0e        .L      LDR      r4,[pc,#56] ; [0x1a14] = 0x40004024
        0x000019dc:    4620         F      MOV      r0,r4
        0x000019de:    3824        $8      SUBS     r0,r0,#0x24
        0x000019e0:    9901        ..      LDR      r1,[sp,#4]
        0x000019e2:    4632        2F      MOV      r2,r6
        0x000019e4:    f7fff8b6    ....    BL       GPIO_SetMode ; 0xb54
        0x000019e8:    6820         h      LDR      r0,[r4,#0]
        0x000019ea:    9902        ..      LDR      r1,[sp,#8]
        0x000019ec:    4308        .C      ORRS     r0,r0,r1
        0x000019ee:    6020         `      STR      r0,[r4,#0]
        0x000019f0:    b003        ..      ADD      sp,sp,#0xc
        0x000019f2:    bcf0        ..      POP      {r4-r7}
        0x000019f4:    bc01        ..      POP      {r0}
        0x000019f6:    4686        .F      MOV      lr,r0
        0x000019f8:    f000b82e    ....    B.W      SystemCoreClockUpdate ; 0x1a58
    $d
    __arm_cp.0_0
        0x000019fc:    40000234    4..@    DCD    1073742388
    __arm_cp.0_1
        0x00001a00:    5f803d10    .=._    DCD    1602239760
    __arm_cp.0_2
        0x00001a04:    6640000d    ..@f    DCD    1715470349
    __arm_cp.0_3
        0x00001a08:    40000030    0..@    DCD    1073741872
    __arm_cp.0_4
        0x00001a0c:    ffff0000    ....    DCD    4294901760
    __arm_cp.0_5
        0x00001a10:    00004444    DD..    DCD    17476
    __arm_cp.0_6
        0x00001a14:    40004024    $@.@    DCD    1073758244
    $t
    SendChar
        0x00001a18:    2101        .!      MOVS     r1,#1
        0x00001a1a:    05ca        ..      LSLS     r2,r1,#23
        0x00001a1c:    4988        .I      LDR      r1,[pc,#544] ; [0x1c40] = 0x40070000
        0x00001a1e:    698b        .i      LDR      r3,[r1,#0x18]
        0x00001a20:    4213        .B      TST      r3,r2
        0x00001a22:    d1fc        ..      BNE      0x1a1e ; SendChar + 6
        0x00001a24:    b2c3        ..      UXTB     r3,r0
        0x00001a26:    2b0a        .+      CMP      r3,#0xa
        0x00001a28:    d104        ..      BNE      0x1a34 ; SendChar + 28
        0x00001a2a:    230d        .#      MOVS     r3,#0xd
        0x00001a2c:    600b        .`      STR      r3,[r1,#0]
        0x00001a2e:    698b        .i      LDR      r3,[r1,#0x18]
        0x00001a30:    4213        .B      TST      r3,r2
        0x00001a32:    d1fc        ..      BNE      0x1a2e ; SendChar + 22
        0x00001a34:    6008        .`      STR      r0,[r1,#0]
        0x00001a36:    4770        pG      BX       lr
    SendChar_ToUART
        0x00001a38:    2101        .!      MOVS     r1,#1
        0x00001a3a:    05ca        ..      LSLS     r2,r1,#23
        0x00001a3c:    4980        .I      LDR      r1,[pc,#512] ; [0x1c40] = 0x40070000
        0x00001a3e:    698b        .i      LDR      r3,[r1,#0x18]
        0x00001a40:    4213        .B      TST      r3,r2
        0x00001a42:    d1fc        ..      BNE      0x1a3e ; SendChar_ToUART + 6
        0x00001a44:    b2c3        ..      UXTB     r3,r0
        0x00001a46:    2b0a        .+      CMP      r3,#0xa
        0x00001a48:    d104        ..      BNE      0x1a54 ; SendChar_ToUART + 28
        0x00001a4a:    230d        .#      MOVS     r3,#0xd
        0x00001a4c:    600b        .`      STR      r3,[r1,#0]
        0x00001a4e:    698b        .i      LDR      r3,[r1,#0x18]
        0x00001a50:    4213        .B      TST      r3,r2
        0x00001a52:    d1fc        ..      BNE      0x1a4e ; SendChar_ToUART + 22
        0x00001a54:    6008        .`      STR      r0,[r1,#0]
        0x00001a56:    4770        pG      BX       lr
    SystemCoreClockUpdate
        0x00001a58:    b5b0        ..      PUSH     {r4,r5,r7,lr}
        0x00001a5a:    4c0e        .L      LDR      r4,[pc,#56] ; [0x1a94] = 0x40000210
        0x00001a5c:    6825        %h      LDR      r5,[r4,#0]
        0x00001a5e:    f7feff81    ....    BL       CLK_GetPLLClockFreq ; 0x964
        0x00001a62:    490d        .I      LDR      r1,[pc,#52] ; [0x1a98] = 0x20000004
        0x00001a64:    6008        .`      STR      r0,[r1,#0]
        0x00001a66:    2107        .!      MOVS     r1,#7
        0x00001a68:    4029        )@      ANDS     r1,r1,r5
        0x00001a6a:    2902        .)      CMP      r1,#2
        0x00001a6c:    d002        ..      BEQ      0x1a74 ; SystemCoreClockUpdate + 28
        0x00001a6e:    0088        ..      LSLS     r0,r1,#2
        0x00001a70:    490a        .I      LDR      r1,[pc,#40] ; [0x1a9c] = 0x25f8
        0x00001a72:    5808        .X      LDR      r0,[r1,r0]
        0x00001a74:    6921        !i      LDR      r1,[r4,#0x10]
        0x00001a76:    220f        ."      MOVS     r2,#0xf
        0x00001a78:    400a        .@      ANDS     r2,r2,r1
        0x00001a7a:    1c51        Q.      ADDS     r1,r2,#1
        0x00001a7c:    fbb0f0f1    ....    UDIV     r0,r0,r1
        0x00001a80:    497c        |I      LDR      r1,[pc,#496] ; [0x1c74] = 0x20000008
        0x00001a82:    6008        .`      STR      r0,[r1,#0]
        0x00001a84:    4906        .I      LDR      r1,[pc,#24] ; [0x1aa0] = 0x7a120
        0x00001a86:    1840        @.      ADDS     r0,r0,r1
        0x00001a88:    4906        .I      LDR      r1,[pc,#24] ; [0x1aa4] = 0xf4240
        0x00001a8a:    fbb0f0f1    ....    UDIV     r0,r0,r1
        0x00001a8e:    4906        .I      LDR      r1,[pc,#24] ; [0x1aa8] = 0x20000000
        0x00001a90:    6008        .`      STR      r0,[r1,#0]
        0x00001a92:    bdb0        ..      POP      {r4,r5,r7,pc}
    $d
    __arm_cp.0_0
        0x00001a94:    40000210    ...@    DCD    1073742352
    __arm_cp.0_1
        0x00001a98:    20000004    ...     DCD    536870916
    __arm_cp.0_2
        0x00001a9c:    000025f8    .%..    DCD    9720
    __arm_cp.0_4
        0x00001aa0:    0007a120     ...    DCD    500000
    __arm_cp.0_5
        0x00001aa4:    000f4240    @B..    DCD    1000000
    __arm_cp.0_6
        0x00001aa8:    20000000    ...     DCD    536870912
    $t
    SystemInit
        0x00001aac:    4805        .H      LDR      r0,[pc,#20] ; [0x1ac4] = 0x4000c04c
        0x00001aae:    6801        .h      LDR      r1,[r0,#0]
        0x00001ab0:    f2401203    @...    MOV      r2,#0x103
        0x00001ab4:    430a        .C      ORRS     r2,r2,r1
        0x00001ab6:    210c        .!      MOVS     r1,#0xc
        0x00001ab8:    438a        .C      BICS     r2,r2,r1
        0x00001aba:    6002        .`      STR      r2,[r0,#0]
        0x00001abc:    4802        .H      LDR      r0,[pc,#8] ; [0x1ac8] = 0xe000ed08
        0x00001abe:    4903        .I      LDR      r1,[pc,#12] ; [0x1acc] = 0
        0x00001ac0:    6001        .`      STR      r1,[r0,#0]
        0x00001ac2:    4770        pG      BX       lr
    $d
    __arm_cp.1_0
        0x00001ac4:    4000c04c    L..@    DCD    1073791052
    __arm_cp.1_1
        0x00001ac8:    e000ed08    ....    DCD    3758157064
    __arm_cp.1_2
        0x00001acc:    00000000    ....    DCD    0
    $t
    UART_Open
        0x00001ad0:    b5f0        ..      PUSH     {r4-r7,lr}
        0x00001ad2:    b089        ..      SUB      sp,sp,#0x24
        0x00001ad4:    9102        ..      STR      r1,[sp,#8]
        0x00001ad6:    4604        .F      MOV      r4,r0
        0x00001ad8:    4836        6H      LDR      r0,[pc,#216] ; [0x1bb4] = 0x25cc
        0x00001ada:    ae03        ..      ADD      r6,sp,#0xc
        0x00001adc:    4631        1F      MOV      r1,r6
        0x00001ade:    c82c        ,.      LDM      r0!,{r2,r3,r5}
        0x00001ae0:    c12c        ,.      STM      r1!,{r2,r3,r5}
        0x00001ae2:    c82c        ,.      LDM      r0!,{r2,r3,r5}
        0x00001ae4:    c12c        ,.      STM      r1!,{r2,r3,r5}
        0x00001ae6:    4856        VH      LDR      r0,[pc,#344] ; [0x1c40] = 0x40070000
        0x00001ae8:    4284        .B      CMP      r4,r0
        0x00001aea:    d00f        ..      BEQ      0x1b0c ; UART_Open + 60
        0x00001aec:    4832        2H      LDR      r0,[pc,#200] ; [0x1bb8] = 0x40073000
        0x00001aee:    4284        .B      CMP      r4,r0
        0x00001af0:    d01b        ..      BEQ      0x1b2a ; UART_Open + 90
        0x00001af2:    4832        2H      LDR      r0,[pc,#200] ; [0x1bbc] = 0x40072000
        0x00001af4:    4284        .B      CMP      r4,r0
        0x00001af6:    d010        ..      BEQ      0x1b1a ; UART_Open + 74
        0x00001af8:    4831        1H      LDR      r0,[pc,#196] ; [0x1bc0] = 0x40071000
        0x00001afa:    4284        .B      CMP      r4,r0
        0x00001afc:    d138        8.      BNE      0x1b70 ; UART_Open + 160
        0x00001afe:    4831        1H      LDR      r0,[pc,#196] ; [0x1bc4] = 0x40000214
        0x00001b00:    6801        .h      LDR      r1,[r0,#0]
        0x00001b02:    0049        I.      LSLS     r1,r1,#1
        0x00001b04:    0f4f        O.      LSRS     r7,r1,#29
        0x00001b06:    68c0        .h      LDR      r0,[r0,#0xc]
        0x00001b08:    0400        ..      LSLS     r0,r0,#16
        0x00001b0a:    e014        ..      B        0x1b36 ; UART_Open + 102
        0x00001b0c:    482d        -H      LDR      r0,[pc,#180] ; [0x1bc4] = 0x40000214
        0x00001b0e:    6801        .h      LDR      r1,[r0,#0]
        0x00001b10:    0149        I.      LSLS     r1,r1,#5
        0x00001b12:    0f4f        O.      LSRS     r7,r1,#29
        0x00001b14:    68c0        .h      LDR      r0,[r0,#0xc]
        0x00001b16:    0500        ..      LSLS     r0,r0,#20
        0x00001b18:    e00d        ..      B        0x1b36 ; UART_Open + 102
        0x00001b1a:    482a        *H      LDR      r0,[pc,#168] ; [0x1bc4] = 0x40000214
        0x00001b1c:    6881        .h      LDR      r1,[r0,#8]
        0x00001b1e:    69c0        .i      LDR      r0,[r0,#0x1c]
        0x00001b20:    220f        ."      MOVS     r2,#0xf
        0x00001b22:    4002        .@      ANDS     r2,r2,r0
        0x00001b24:    0148        H.      LSLS     r0,r1,#5
        0x00001b26:    0f47        G.      LSRS     r7,r0,#29
        0x00001b28:    e006        ..      B        0x1b38 ; UART_Open + 104
        0x00001b2a:    4826        &H      LDR      r0,[pc,#152] ; [0x1bc4] = 0x40000214
        0x00001b2c:    6881        .h      LDR      r1,[r0,#8]
        0x00001b2e:    0049        I.      LSLS     r1,r1,#1
        0x00001b30:    0f4f        O.      LSRS     r7,r1,#29
        0x00001b32:    69c0        .i      LDR      r0,[r0,#0x1c]
        0x00001b34:    0600        ..      LSLS     r0,r0,#24
        0x00001b36:    0f02        ..      LSRS     r2,r0,#28
        0x00001b38:    2000        .       MOVS     r0,#0
        0x00001b3a:    6320         c      STR      r0,[r4,#0x30]
        0x00001b3c:    2503        .%      MOVS     r5,#3
        0x00001b3e:    60e5        .`      STR      r5,[r4,#0xc]
        0x00001b40:    68a0        .h      LDR      r0,[r4,#8]
        0x00001b42:    4921        !I      LDR      r1,[pc,#132] ; [0x1bc8] = 0xfff0ff0f
        0x00001b44:    4001        .@      ANDS     r1,r1,r0
        0x00001b46:    60a1        .`      STR      r1,[r4,#8]
        0x00001b48:    2f04        ./      CMP      r7,#4
        0x00001b4a:    d006        ..      BEQ      0x1b5a ; UART_Open + 138
        0x00001b4c:    2f01        ./      CMP      r7,#1
        0x00001b4e:    d116        ..      BNE      0x1b7e ; UART_Open + 174
        0x00001b50:    9201        ..      STR      r2,[sp,#4]
        0x00001b52:    1d36        6.      ADDS     r6,r6,#4
        0x00001b54:    f7feff06    ....    BL       CLK_GetPLLClockFreq ; 0x964
        0x00001b58:    e00f        ..      B        0x1b7a ; UART_Open + 170
        0x00001b5a:    9201        ..      STR      r2,[sp,#4]
        0x00001b5c:    3610        .6      ADDS     r6,r6,#0x10
        0x00001b5e:    f2420000    B...    MOVW     r0,#0x2000
        0x00001b62:    4320         C      ORRS     r0,r0,r4
        0x00001b64:    4915        .I      LDR      r1,[pc,#84] ; [0x1bbc] = 0x40072000
        0x00001b66:    4288        .B      CMP      r0,r1
        0x00001b68:    d105        ..      BNE      0x1b76 ; UART_Open + 166
        0x00001b6a:    f7fefe91    ....    BL       CLK_GetPCLK0Freq ; 0x890
        0x00001b6e:    e004        ..      B        0x1b7a ; UART_Open + 170
        0x00001b70:    2200        ."      MOVS     r2,#0
        0x00001b72:    4617        .F      MOV      r7,r2
        0x00001b74:    e7e0        ..      B        0x1b38 ; UART_Open + 104
        0x00001b76:    f7fefebf    ....    BL       CLK_GetPCLK1Freq ; 0x8f8
        0x00001b7a:    6030        0`      STR      r0,[r6,#0]
        0x00001b7c:    9a01        ..      LDR      r2,[sp,#4]
        0x00001b7e:    9b02        ..      LDR      r3,[sp,#8]
        0x00001b80:    b1b3        ..      CBZ      r3,0x1bb0 ; UART_Open + 224
        0x00001b82:    00b8        ..      LSLS     r0,r7,#2
        0x00001b84:    a903        ..      ADD      r1,sp,#0xc
        0x00001b86:    5808        .X      LDR      r0,[r1,r0]
        0x00001b88:    1c51        Q.      ADDS     r1,r2,#1
        0x00001b8a:    fbb0f1f1    ....    UDIV     r1,r0,r1
        0x00001b8e:    0858        X.      LSRS     r0,r3,#1
        0x00001b90:    1808        ..      ADDS     r0,r1,r0
        0x00001b92:    fbb0f0f3    ....    UDIV     r0,r0,r3
        0x00001b96:    1e80        ..      SUBS     r0,r0,#2
        0x00001b98:    0c02        ..      LSRS     r2,r0,#16
        0x00001b9a:    d006        ..      BEQ      0x1baa ; UART_Open + 218
        0x00001b9c:    00d8        ..      LSLS     r0,r3,#3
        0x00001b9e:    1808        ..      ADDS     r0,r1,r0
        0x00001ba0:    fbb0f0f3    ....    UDIV     r0,r0,r3
        0x00001ba4:    0900        ..      LSRS     r0,r0,#4
        0x00001ba6:    1e80        ..      SUBS     r0,r0,#2
        0x00001ba8:    e001        ..      B        0x1bae ; UART_Open + 222
        0x00001baa:    0729        ).      LSLS     r1,r5,#28
        0x00001bac:    4308        .C      ORRS     r0,r0,r1
        0x00001bae:    6260        `b      STR      r0,[r4,#0x24]
        0x00001bb0:    b009        ..      ADD      sp,sp,#0x24
        0x00001bb2:    bdf0        ..      POP      {r4-r7,pc}
    $d
    __arm_cp.6_0
        0x00001bb4:    000025cc    .%..    DCD    9676
    __arm_cp.6_2
        0x00001bb8:    40073000    .0.@    DCD    1074212864
    __arm_cp.6_3
        0x00001bbc:    40072000    . .@    DCD    1074208768
    __arm_cp.6_4
        0x00001bc0:    40071000    ...@    DCD    1074204672
    __arm_cp.6_5
        0x00001bc4:    40000214    ...@    DCD    1073742356
    __arm_cp.6_6
        0x00001bc8:    fff0ff0f    ....    DCD    4293984015
    $t
    fputc
        0x00001bcc:    b510        ..      PUSH     {r4,lr}
        0x00001bce:    4604        .F      MOV      r4,r0
        0x00001bd0:    f7ffff22    ..".    BL       SendChar ; 0x1a18
        0x00001bd4:    4620         F      MOV      r0,r4
        0x00001bd6:    bd10        ..      POP      {r4,pc}
    main
        0x00001bd8:    b082        ..      SUB      sp,sp,#8
        0x00001bda:    4818        .H      LDR      r0,[pc,#96] ; [0x1c3c] = 0x40000100
        0x00001bdc:    2159        Y!      MOVS     r1,#0x59
        0x00001bde:    2216        ."      MOVS     r2,#0x16
        0x00001be0:    2388        .#      MOVS     r3,#0x88
        0x00001be2:    6001        .`      STR      r1,[r0,#0]
        0x00001be4:    6002        .`      STR      r2,[r0,#0]
        0x00001be6:    6003        .`      STR      r3,[r0,#0]
        0x00001be8:    6804        .h      LDR      r4,[r0,#0]
        0x00001bea:    2c00        .,      CMP      r4,#0
        0x00001bec:    d0f9        ..      BEQ      0x1be2 ; main + 10
        0x00001bee:    f7fffeb7    ....    BL       SYS_Init ; 0x1960
        0x00001bf2:    20e1        .       MOVS     r0,#0xe1
        0x00001bf4:    0241        A.      LSLS     r1,r0,#9
        0x00001bf6:    4812        .H      LDR      r0,[pc,#72] ; [0x1c40] = 0x40070000
        0x00001bf8:    f7ffff6a    ..j.    BL       UART_Open ; 0x1ad0
        0x00001bfc:    4811        .H      LDR      r0,[pc,#68] ; [0x1c44] = 0x989680
        0x00001bfe:    9000        ..      STR      r0,[sp,#0]
        0x00001c00:    4811        .H      LDR      r0,[pc,#68] ; [0x1c48] = 0x40061000
        0x00001c02:    2100        .!      MOVS     r1,#0
        0x00001c04:    2404        .$      MOVS     r4,#4
        0x00001c06:    2308        .#      MOVS     r3,#8
        0x00001c08:    4622        "F      MOV      r2,r4
        0x00001c0a:    f7fffd39    ..9.    BL       SPI_Open ; 0x1680
        0x00001c0e:    f7fffc0f    ....    BL       Reset_NADC24B ; 0x1430
        0x00001c12:    f7feffc3    ....    BL       NADC24B_Cali_and_Initial ; 0xb9c
        0x00001c16:    480d        .H      LDR      r0,[pc,#52] ; [0x1c4c] = 0x40004000
        0x00001c18:    2501        .%      MOVS     r5,#1
        0x00001c1a:    4621        !F      MOV      r1,r4
        0x00001c1c:    462a        *F      MOV      r2,r5
        0x00001c1e:    f7feff8b    ....    BL       GPIO_EnableInt ; 0xb38
        0x00001c22:    0428        (.      LSLS     r0,r5,#16
        0x00001c24:    490a        .I      LDR      r1,[pc,#40] ; [0x1c50] = 0xe000e100
        0x00001c26:    6008        .`      STR      r0,[r1,#0]
        0x00001c28:    a00a        ..      ADR      r0,{pc}+0x2c ; 0x1c54
        0x00001c2a:    f000fcb9    ....    BL       puts ; 0x25a0
        0x00001c2e:    4811        .H      LDR      r0,[pc,#68] ; [0x1c74] = 0x20000008
        0x00001c30:    6801        .h      LDR      r1,[r0,#0]
        0x00001c32:    a011        ..      ADR      r0,{pc}+0x46 ; 0x1c78
        0x00001c34:    f000f828    ..(.    BL       __0printf ; 0x1c88
        0x00001c38:    e7fe        ..      B        0x1c38 ; main + 96
        0x00001c3a:    46c0        .F      MOV      r8,r8
    $d
    __arm_cp.3_0
        0x00001c3c:    40000100    ...@    DCD    1073742080
    __arm_cp.3_1
        0x00001c40:    40070000    ...@    DCD    1074200576
    __arm_cp.3_2
        0x00001c44:    00989680    ....    DCD    10000000
    __arm_cp.3_3
        0x00001c48:    40061000    ...@    DCD    1074139136
    __arm_cp.3_4
        0x00001c4c:    40004000    .@.@    DCD    1073758208
    __arm_cp.3_5
        0x00001c50:    e000e100    ....    DCD    3758153984
        0x00001c54:    73696854    This    DCD    1936287828
        0x00001c58:    61786520     exa    DCD    1635280160
        0x00001c5c:    656c706d    mple    DCD    1701605485
        0x00001c60:    726f6620     for    DCD    1919903264
        0x00001c64:    2d4b4e20     NK-    DCD    759909920
        0x00001c68:    4344414e    NADC    DCD    1128546638
        0x00001c6c:    2e423432    24B.    DCD    776090674
        0x00001c70:    00000000    ....    DCD    0
    __arm_cp.3_7
        0x00001c74:    20000008    ...     DCD    536870920
        0x00001c78:    20555043    CPU     DCD    542462019
        0x00001c7c:    64252040    @ %d    DCD    1680154688
        0x00001c80:    0a7a4820     Hz.    DCD    175786016
        0x00001c84:    0000000a    ....    DCD    10
    $t
    i.__0printf
    __0printf
    __1printf
    __2printf
    __c89printf
    printf
        0x00001c88:    b40f        ..      PUSH     {r0-r3}
        0x00001c8a:    b510        ..      PUSH     {r4,lr}
        0x00001c8c:    a903        ..      ADD      r1,sp,#0xc
        0x00001c8e:    4b04        .K      LDR      r3,[pc,#16] ; [0x1ca0] = 0x1bcd
        0x00001c90:    4a04        .J      LDR      r2,[pc,#16] ; [0x1ca4] = 0x20000010
        0x00001c92:    9802        ..      LDR      r0,[sp,#8]
        0x00001c94:    f000f8e8    ....    BL       _printf_core ; 0x1e68
        0x00001c98:    bc10        ..      POP      {r4}
        0x00001c9a:    bc08        ..      POP      {r3}
        0x00001c9c:    b004        ..      ADD      sp,sp,#0x10
        0x00001c9e:    4718        .G      BX       r3
    $d
        0x00001ca0:    00001bcd    ....    DCD    7117
        0x00001ca4:    20000010    ...     DCD    536870928
    $t
    i.__ARM_clz
    __ARM_clz
        0x00001ca8:    2120         !      MOVS     r1,#0x20
        0x00001caa:    0c02        ..      LSRS     r2,r0,#16
        0x00001cac:    d001        ..      BEQ      0x1cb2 ; __ARM_clz + 10
        0x00001cae:    2110        .!      MOVS     r1,#0x10
        0x00001cb0:    4610        .F      MOV      r0,r2
        0x00001cb2:    0a02        ..      LSRS     r2,r0,#8
        0x00001cb4:    d001        ..      BEQ      0x1cba ; __ARM_clz + 18
        0x00001cb6:    4610        .F      MOV      r0,r2
        0x00001cb8:    3908        .9      SUBS     r1,r1,#8
        0x00001cba:    0902        ..      LSRS     r2,r0,#4
        0x00001cbc:    d001        ..      BEQ      0x1cc2 ; __ARM_clz + 26
        0x00001cbe:    4610        .F      MOV      r0,r2
        0x00001cc0:    1f09        ..      SUBS     r1,r1,#4
        0x00001cc2:    0882        ..      LSRS     r2,r0,#2
        0x00001cc4:    d001        ..      BEQ      0x1cca ; __ARM_clz + 34
        0x00001cc6:    4610        .F      MOV      r0,r2
        0x00001cc8:    1e89        ..      SUBS     r1,r1,#2
        0x00001cca:    0842        B.      LSRS     r2,r0,#1
        0x00001ccc:    d001        ..      BEQ      0x1cd2 ; __ARM_clz + 42
        0x00001cce:    1e88        ..      SUBS     r0,r1,#2
        0x00001cd0:    4770        pG      BX       lr
        0x00001cd2:    1a08        ..      SUBS     r0,r1,r0
        0x00001cd4:    4770        pG      BX       lr
    i.__scatterload_copy
    __scatterload_copy
        0x00001cd6:    e002        ..      B        0x1cde ; __scatterload_copy + 8
        0x00001cd8:    c808        ..      LDM      r0!,{r3}
        0x00001cda:    1f12        ..      SUBS     r2,r2,#4
        0x00001cdc:    c108        ..      STM      r1!,{r3}
        0x00001cde:    2a00        .*      CMP      r2,#0
        0x00001ce0:    d1fa        ..      BNE      0x1cd8 ; __scatterload_copy + 2
        0x00001ce2:    4770        pG      BX       lr
    i.__scatterload_null
    __scatterload_null
        0x00001ce4:    4770        pG      BX       lr
    i.__scatterload_zeroinit
    __scatterload_zeroinit
        0x00001ce6:    2000        .       MOVS     r0,#0
        0x00001ce8:    e001        ..      B        0x1cee ; __scatterload_zeroinit + 8
        0x00001cea:    c101        ..      STM      r1!,{r0}
        0x00001cec:    1f12        ..      SUBS     r2,r2,#4
        0x00001cee:    2a00        .*      CMP      r2,#0
        0x00001cf0:    d1fb        ..      BNE      0x1cea ; __scatterload_zeroinit + 4
        0x00001cf2:    4770        pG      BX       lr
    i._fp_digits
    _fp_digits
        0x00001cf4:    b5f0        ..      PUSH     {r4-r7,lr}
        0x00001cf6:    b41f        ..      PUSH     {r0-r4}
        0x00001cf8:    b086        ..      SUB      sp,sp,#0x18
        0x00001cfa:    9809        ..      LDR      r0,[sp,#0x24]
        0x00001cfc:    9a08        ..      LDR      r2,[sp,#0x20]
        0x00001cfe:    0d03        ..      LSRS     r3,r0,#20
        0x00001d00:    2100        .!      MOVS     r1,#0
        0x00001d02:    4302        .C      ORRS     r2,r2,r0
        0x00001d04:    d014        ..      BEQ      0x1d30 ; _fp_digits + 60
        0x00001d06:    4851        QH      LDR      r0,[pc,#324] ; [0x1e4c] = 0xfffffc01
        0x00001d08:    4a51        QJ      LDR      r2,[pc,#324] ; [0x1e50] = 0x4d10
        0x00001d0a:    1818        ..      ADDS     r0,r3,r0
        0x00001d0c:    4350        PC      MULS     r0,r2,r0
        0x00001d0e:    1405        ..      ASRS     r5,r0,#16
        0x00001d10:    9811        ..      LDR      r0,[sp,#0x44]
        0x00001d12:    2801        .(      CMP      r0,#1
        0x00001d14:    9810        ..      LDR      r0,[sp,#0x40]
        0x00001d16:    d01a        ..      BEQ      0x1d4e ; _fp_digits + 90
        0x00001d18:    1a28        (.      SUBS     r0,r5,r0
        0x00001d1a:    1c40        @.      ADDS     r0,r0,#1
        0x00001d1c:    2600        .&      MOVS     r6,#0
        0x00001d1e:    4f4d        MO      LDR      r7,[pc,#308] ; [0x1e54] = 0x40140000
        0x00001d20:    494d        MI      LDR      r1,[pc,#308] ; [0x1e58] = 0x3ff00000
        0x00001d22:    9600        ..      STR      r6,[sp,#0]
        0x00001d24:    9101        ..      STR      r1,[sp,#4]
        0x00001d26:    9004        ..      STR      r0,[sp,#0x10]
        0x00001d28:    2800        .(      CMP      r0,#0
        0x00001d2a:    da12        ..      BGE      0x1d52 ; _fp_digits + 94
        0x00001d2c:    4244        DB      RSBS     r4,r0,#0
        0x00001d2e:    e011        ..      B        0x1d54 ; _fp_digits + 96
        0x00001d30:    9811        ..      LDR      r0,[sp,#0x44]
        0x00001d32:    2401        .$      MOVS     r4,#1
        0x00001d34:    a349        I.      ADR      r3,{pc}+0x128 ; 0x1e5c
        0x00001d36:    2801        .(      CMP      r0,#1
        0x00001d38:    d101        ..      BNE      0x1d3e ; _fp_digits + 74
        0x00001d3a:    9810        ..      LDR      r0,[sp,#0x40]
        0x00001d3c:    43c1        .C      MVNS     r1,r0
        0x00001d3e:    9806        ..      LDR      r0,[sp,#0x18]
        0x00001d40:    9a11        ..      LDR      r2,[sp,#0x44]
        0x00001d42:    6084        .`      STR      r4,[r0,#8]
        0x00001d44:    6003        .`      STR      r3,[r0,#0]
        0x00001d46:    60c2        .`      STR      r2,[r0,#0xc]
        0x00001d48:    6041        A`      STR      r1,[r0,#4]
        0x00001d4a:    b00b        ..      ADD      sp,sp,#0x2c
        0x00001d4c:    bdf0        ..      POP      {r4-r7,pc}
        0x00001d4e:    4240        @B      RSBS     r0,r0,#0
        0x00001d50:    e7e4        ..      B        0x1d1c ; _fp_digits + 40
        0x00001d52:    4604        .F      MOV      r4,r0
        0x00001d54:    0521        !.      LSLS     r1,r4,#20
        0x00001d56:    2000        .       MOVS     r0,#0
        0x00001d58:    4a3f        ?J      LDR      r2,[pc,#252] ; [0x1e58] = 0x3ff00000
        0x00001d5a:    1c00        ..      ADDS     r0,r0,#0
        0x00001d5c:    4151        QA      ADCS     r1,r1,r2
        0x00001d5e:    9103        ..      STR      r1,[sp,#0xc]
        0x00001d60:    9002        ..      STR      r0,[sp,#8]
        0x00001d62:    e012        ..      B        0x1d8a ; _fp_digits + 150
        0x00001d64:    07e0        ..      LSLS     r0,r4,#31
        0x00001d66:    d007        ..      BEQ      0x1d78 ; _fp_digits + 132
        0x00001d68:    4632        2F      MOV      r2,r6
        0x00001d6a:    463b        ;F      MOV      r3,r7
        0x00001d6c:    9901        ..      LDR      r1,[sp,#4]
        0x00001d6e:    9800        ..      LDR      r0,[sp,#0]
        0x00001d70:    f7fefa32    ..2.    BL       __aeabi_dmul ; 0x1d8
        0x00001d74:    9101        ..      STR      r1,[sp,#4]
        0x00001d76:    9000        ..      STR      r0,[sp,#0]
        0x00001d78:    4632        2F      MOV      r2,r6
        0x00001d7a:    463b        ;F      MOV      r3,r7
        0x00001d7c:    4610        .F      MOV      r0,r2
        0x00001d7e:    4619        .F      MOV      r1,r3
        0x00001d80:    f7fefa2a    ..*.    BL       __aeabi_dmul ; 0x1d8
        0x00001d84:    4606        .F      MOV      r6,r0
        0x00001d86:    460f        .F      MOV      r7,r1
        0x00001d88:    1064        d.      ASRS     r4,r4,#1
        0x00001d8a:    2c00        .,      CMP      r4,#0
        0x00001d8c:    d1ea        ..      BNE      0x1d64 ; _fp_digits + 112
        0x00001d8e:    9804        ..      LDR      r0,[sp,#0x10]
        0x00001d90:    9b03        ..      LDR      r3,[sp,#0xc]
        0x00001d92:    2800        .(      CMP      r0,#0
        0x00001d94:    9a02        ..      LDR      r2,[sp,#8]
        0x00001d96:    9909        ..      LDR      r1,[sp,#0x24]
        0x00001d98:    9808        ..      LDR      r0,[sp,#0x20]
        0x00001d9a:    da06        ..      BGE      0x1daa ; _fp_digits + 182
        0x00001d9c:    f7fefa1c    ....    BL       __aeabi_dmul ; 0x1d8
        0x00001da0:    9b01        ..      LDR      r3,[sp,#4]
        0x00001da2:    9a00        ..      LDR      r2,[sp,#0]
        0x00001da4:    f7fefa18    ....    BL       __aeabi_dmul ; 0x1d8
        0x00001da8:    e005        ..      B        0x1db6 ; _fp_digits + 194
        0x00001daa:    f7fefc3b    ..;.    BL       __aeabi_ddiv ; 0x624
        0x00001dae:    9b01        ..      LDR      r3,[sp,#4]
        0x00001db0:    9a00        ..      LDR      r2,[sp,#0]
        0x00001db2:    f7fefc37    ..7.    BL       __aeabi_ddiv ; 0x624
        0x00001db6:    4604        .F      MOV      r4,r0
        0x00001db8:    460e        .F      MOV      r6,r1
        0x00001dba:    2200        ."      MOVS     r2,#0
        0x00001dbc:    4b28        (K      LDR      r3,[pc,#160] ; [0x1e60] = 0x43f00000
        0x00001dbe:    f7fefcc9    ....    BL       __aeabi_cdrcmple ; 0x754
        0x00001dc2:    d803        ..      BHI      0x1dcc ; _fp_digits + 216
        0x00001dc4:    2000        .       MOVS     r0,#0
        0x00001dc6:    43c0        .C      MVNS     r0,r0
        0x00001dc8:    4601        .F      MOV      r1,r0
        0x00001dca:    e007        ..      B        0x1ddc ; _fp_digits + 232
        0x00001dcc:    2200        ."      MOVS     r2,#0
        0x00001dce:    4b25        %K      LDR      r3,[pc,#148] ; [0x1e64] = 0x3fe00000
        0x00001dd0:    4620         F      MOV      r0,r4
        0x00001dd2:    4631        1F      MOV      r1,r6
        0x00001dd4:    f7fefb74    ..t.    BL       __aeabi_dadd ; 0x4c0
        0x00001dd8:    f7fefc9c    ....    BL       __aeabi_d2ulz ; 0x714
        0x00001ddc:    2410        .$      MOVS     r4,#0x10
        0x00001dde:    e009        ..      B        0x1df4 ; _fp_digits + 256
        0x00001de0:    2c00        .,      CMP      r4,#0
        0x00001de2:    db0a        ..      BLT      0x1dfa ; _fp_digits + 262
        0x00001de4:    220a        ."      MOVS     r2,#0xa
        0x00001de6:    2300        .#      MOVS     r3,#0
        0x00001de8:    f7fefa99    ....    BL       __aeabi_uldivmod ; 0x31e
        0x00001dec:    9b07        ..      LDR      r3,[sp,#0x1c]
        0x00001dee:    3230        02      ADDS     r2,r2,#0x30
        0x00001df0:    551a        .U      STRB     r2,[r3,r4]
        0x00001df2:    1e64        d.      SUBS     r4,r4,#1
        0x00001df4:    4602        .F      MOV      r2,r0
        0x00001df6:    430a        .C      ORRS     r2,r2,r1
        0x00001df8:    d1f2        ..      BNE      0x1de0 ; _fp_digits + 236
        0x00001dfa:    2211        ."      MOVS     r2,#0x11
        0x00001dfc:    1c64        d.      ADDS     r4,r4,#1
        0x00001dfe:    9b07        ..      LDR      r3,[sp,#0x1c]
        0x00001e00:    1b12        ..      SUBS     r2,r2,r4
        0x00001e02:    191c        ..      ADDS     r4,r3,r4
        0x00001e04:    9b11        ..      LDR      r3,[sp,#0x44]
        0x00001e06:    2b01        .+      CMP      r3,#1
        0x00001e08:    d003        ..      BEQ      0x1e12 ; _fp_digits + 286
        0x00001e0a:    2301        .#      MOVS     r3,#1
        0x00001e0c:    4308        .C      ORRS     r0,r0,r1
        0x00001e0e:    d10e        ..      BNE      0x1e2e ; _fp_digits + 314
        0x00001e10:    e00a        ..      B        0x1e28 ; _fp_digits + 308
        0x00001e12:    4308        .C      ORRS     r0,r0,r1
        0x00001e14:    d004        ..      BEQ      0x1e20 ; _fp_digits + 300
        0x00001e16:    2011        .       MOVS     r0,#0x11
        0x00001e18:    9010        ..      STR      r0,[sp,#0x40]
        0x00001e1a:    2000        .       MOVS     r0,#0
        0x00001e1c:    9011        ..      STR      r0,[sp,#0x44]
        0x00001e1e:    e777        w.      B        0x1d10 ; _fp_digits + 28
        0x00001e20:    9810        ..      LDR      r0,[sp,#0x40]
        0x00001e22:    1a15        ..      SUBS     r5,r2,r0
        0x00001e24:    1e6d        m.      SUBS     r5,r5,#1
        0x00001e26:    e00b        ..      B        0x1e40 ; _fp_digits + 332
        0x00001e28:    9810        ..      LDR      r0,[sp,#0x40]
        0x00001e2a:    4282        .B      CMP      r2,r0
        0x00001e2c:    dd02        ..      BLE      0x1e34 ; _fp_digits + 320
        0x00001e2e:    2300        .#      MOVS     r3,#0
        0x00001e30:    1c6d        m.      ADDS     r5,r5,#1
        0x00001e32:    e003        ..      B        0x1e3c ; _fp_digits + 328
        0x00001e34:    4282        .B      CMP      r2,r0
        0x00001e36:    da01        ..      BGE      0x1e3c ; _fp_digits + 328
        0x00001e38:    2300        .#      MOVS     r3,#0
        0x00001e3a:    1e6d        m.      SUBS     r5,r5,#1
        0x00001e3c:    2b00        .+      CMP      r3,#0
        0x00001e3e:    d0ee        ..      BEQ      0x1e1e ; _fp_digits + 298
        0x00001e40:    9806        ..      LDR      r0,[sp,#0x18]
        0x00001e42:    9911        ..      LDR      r1,[sp,#0x44]
        0x00001e44:    6082        .`      STR      r2,[r0,#8]
        0x00001e46:    60c1        .`      STR      r1,[r0,#0xc]
        0x00001e48:    c030        0.      STM      r0!,{r4,r5}
        0x00001e4a:    e77e        ~.      B        0x1d4a ; _fp_digits + 86
    $d
        0x00001e4c:    fffffc01    ....    DCD    4294966273
        0x00001e50:    00004d10    .M..    DCD    19728
        0x00001e54:    40140000    ...@    DCD    1075052544
        0x00001e58:    3ff00000    ...?    DCD    1072693248
        0x00001e5c:    00000030    0...    DCD    48
        0x00001e60:    43f00000    ...C    DCD    1139802112
        0x00001e64:    3fe00000    ...?    DCD    1071644672
    $t
    i._printf_core
    _printf_core
        0x00001e68:    b5ff        ..      PUSH     {r0-r7,lr}
        0x00001e6a:    b097        ..      SUB      sp,sp,#0x5c
        0x00001e6c:    4606        .F      MOV      r6,r0
        0x00001e6e:    2500        .%      MOVS     r5,#0
        0x00001e70:    e218        ..      B        0x22a4 ; _printf_core + 1084
        0x00001e72:    2825        %(      CMP      r0,#0x25
        0x00001e74:    d177        w.      BNE      0x1f66 ; _printf_core + 254
        0x00001e76:    2400        .$      MOVS     r4,#0
        0x00001e78:    4627        'F      MOV      r7,r4
        0x00001e7a:    49fd        .I      LDR      r1,[pc,#1012] ; [0x2270] = 0x12809
        0x00001e7c:    9404        ..      STR      r4,[sp,#0x10]
        0x00001e7e:    e000        ..      B        0x1e82 ; _printf_core + 26
        0x00001e80:    4304        .C      ORRS     r4,r4,r0
        0x00001e82:    1c76        v.      ADDS     r6,r6,#1
        0x00001e84:    7832        2x      LDRB     r2,[r6,#0]
        0x00001e86:    2001        .       MOVS     r0,#1
        0x00001e88:    3a20         :      SUBS     r2,r2,#0x20
        0x00001e8a:    4090        .@      LSLS     r0,r0,r2
        0x00001e8c:    4208        .B      TST      r0,r1
        0x00001e8e:    d1f7        ..      BNE      0x1e80 ; _printf_core + 24
        0x00001e90:    7830        0x      LDRB     r0,[r6,#0]
        0x00001e92:    282a        *(      CMP      r0,#0x2a
        0x00001e94:    d00e        ..      BEQ      0x1eb4 ; _printf_core + 76
        0x00001e96:    2202        ."      MOVS     r2,#2
        0x00001e98:    7830        0x      LDRB     r0,[r6,#0]
        0x00001e9a:    4601        .F      MOV      r1,r0
        0x00001e9c:    3930        09      SUBS     r1,r1,#0x30
        0x00001e9e:    2909        .)      CMP      r1,#9
        0x00001ea0:    d816        ..      BHI      0x1ed0 ; _printf_core + 104
        0x00001ea2:    9904        ..      LDR      r1,[sp,#0x10]
        0x00001ea4:    230a        .#      MOVS     r3,#0xa
        0x00001ea6:    4359        YC      MULS     r1,r3,r1
        0x00001ea8:    3930        09      SUBS     r1,r1,#0x30
        0x00001eaa:    1840        @.      ADDS     r0,r0,r1
        0x00001eac:    4314        .C      ORRS     r4,r4,r2
        0x00001eae:    1c76        v.      ADDS     r6,r6,#1
        0x00001eb0:    9004        ..      STR      r0,[sp,#0x10]
        0x00001eb2:    e7f1        ..      B        0x1e98 ; _printf_core + 48
        0x00001eb4:    9818        ..      LDR      r0,[sp,#0x60]
        0x00001eb6:    c802        ..      LDM      r0!,{r1}
        0x00001eb8:    9104        ..      STR      r1,[sp,#0x10]
        0x00001eba:    9018        ..      STR      r0,[sp,#0x60]
        0x00001ebc:    2900        .)      CMP      r1,#0
        0x00001ebe:    da04        ..      BGE      0x1eca ; _printf_core + 98
        0x00001ec0:    2001        .       MOVS     r0,#1
        0x00001ec2:    0340        @.      LSLS     r0,r0,#13
        0x00001ec4:    4304        .C      ORRS     r4,r4,r0
        0x00001ec6:    4248        HB      RSBS     r0,r1,#0
        0x00001ec8:    9004        ..      STR      r0,[sp,#0x10]
        0x00001eca:    2002        .       MOVS     r0,#2
        0x00001ecc:    4304        .C      ORRS     r4,r4,r0
        0x00001ece:    1c76        v.      ADDS     r6,r6,#1
        0x00001ed0:    7830        0x      LDRB     r0,[r6,#0]
        0x00001ed2:    282e        .(      CMP      r0,#0x2e
        0x00001ed4:    d114        ..      BNE      0x1f00 ; _printf_core + 152
        0x00001ed6:    2004        .       MOVS     r0,#4
        0x00001ed8:    4304        .C      ORRS     r4,r4,r0
        0x00001eda:    7870        px      LDRB     r0,[r6,#1]
        0x00001edc:    1c76        v.      ADDS     r6,r6,#1
        0x00001ede:    282a        *(      CMP      r0,#0x2a
        0x00001ee0:    d109        ..      BNE      0x1ef6 ; _printf_core + 142
        0x00001ee2:    9818        ..      LDR      r0,[sp,#0x60]
        0x00001ee4:    1c76        v.      ADDS     r6,r6,#1
        0x00001ee6:    c880        ..      LDM      r0!,{r7}
        0x00001ee8:    9018        ..      STR      r0,[sp,#0x60]
        0x00001eea:    e009        ..      B        0x1f00 ; _printf_core + 152
        0x00001eec:    210a        .!      MOVS     r1,#0xa
        0x00001eee:    434f        OC      MULS     r7,r1,r7
        0x00001ef0:    3f30        0?      SUBS     r7,r7,#0x30
        0x00001ef2:    19c7        ..      ADDS     r7,r0,r7
        0x00001ef4:    1c76        v.      ADDS     r6,r6,#1
        0x00001ef6:    7830        0x      LDRB     r0,[r6,#0]
        0x00001ef8:    4601        .F      MOV      r1,r0
        0x00001efa:    3930        09      SUBS     r1,r1,#0x30
        0x00001efc:    2909        .)      CMP      r1,#9
        0x00001efe:    d9f5        ..      BLS      0x1eec ; _printf_core + 132
        0x00001f00:    7830        0x      LDRB     r0,[r6,#0]
        0x00001f02:    286c        l(      CMP      r0,#0x6c
        0x00001f04:    d010        ..      BEQ      0x1f28 ; _printf_core + 192
        0x00001f06:    dc06        ..      BGT      0x1f16 ; _printf_core + 174
        0x00001f08:    284c        L(      CMP      r0,#0x4c
        0x00001f0a:    d01a        ..      BEQ      0x1f42 ; _printf_core + 218
        0x00001f0c:    2868        h(      CMP      r0,#0x68
        0x00001f0e:    d00e        ..      BEQ      0x1f2e ; _printf_core + 198
        0x00001f10:    286a        j(      CMP      r0,#0x6a
        0x00001f12:    d117        ..      BNE      0x1f44 ; _printf_core + 220
        0x00001f14:    e004        ..      B        0x1f20 ; _printf_core + 184
        0x00001f16:    2874        t(      CMP      r0,#0x74
        0x00001f18:    d013        ..      BEQ      0x1f42 ; _printf_core + 218
        0x00001f1a:    287a        z(      CMP      r0,#0x7a
        0x00001f1c:    d112        ..      BNE      0x1f44 ; _printf_core + 220
        0x00001f1e:    e010        ..      B        0x1f42 ; _printf_core + 218
        0x00001f20:    2001        .       MOVS     r0,#1
        0x00001f22:    0540        @.      LSLS     r0,r0,#21
        0x00001f24:    4304        .C      ORRS     r4,r4,r0
        0x00001f26:    e00c        ..      B        0x1f42 ; _printf_core + 218
        0x00001f28:    2101        .!      MOVS     r1,#1
        0x00001f2a:    0509        ..      LSLS     r1,r1,#20
        0x00001f2c:    e001        ..      B        0x1f32 ; _printf_core + 202
        0x00001f2e:    2103        .!      MOVS     r1,#3
        0x00001f30:    0509        ..      LSLS     r1,r1,#20
        0x00001f32:    430c        .C      ORRS     r4,r4,r1
        0x00001f34:    7871        qx      LDRB     r1,[r6,#1]
        0x00001f36:    4281        .B      CMP      r1,r0
        0x00001f38:    d103        ..      BNE      0x1f42 ; _printf_core + 218
        0x00001f3a:    2001        .       MOVS     r0,#1
        0x00001f3c:    0500        ..      LSLS     r0,r0,#20
        0x00001f3e:    1824        $.      ADDS     r4,r4,r0
        0x00001f40:    1c76        v.      ADDS     r6,r6,#1
        0x00001f42:    1c76        v.      ADDS     r6,r6,#1
        0x00001f44:    7830        0x      LDRB     r0,[r6,#0]
        0x00001f46:    9011        ..      STR      r0,[sp,#0x44]
        0x00001f48:    2866        f(      CMP      r0,#0x66
        0x00001f4a:    d00b        ..      BEQ      0x1f64 ; _printf_core + 252
        0x00001f4c:    dc13        ..      BGT      0x1f76 ; _printf_core + 270
        0x00001f4e:    2858        X(      CMP      r0,#0x58
        0x00001f50:    d07d        }.      BEQ      0x204e ; _printf_core + 486
        0x00001f52:    dc09        ..      BGT      0x1f68 ; _printf_core + 256
        0x00001f54:    2800        .(      CMP      r0,#0
        0x00001f56:    d07b        {.      BEQ      0x2050 ; _printf_core + 488
        0x00001f58:    2845        E(      CMP      r0,#0x45
        0x00001f5a:    d0f6        ..      BEQ      0x1f4a ; _printf_core + 226
        0x00001f5c:    2846        F(      CMP      r0,#0x46
        0x00001f5e:    d0f4        ..      BEQ      0x1f4a ; _printf_core + 226
        0x00001f60:    2847        G(      CMP      r0,#0x47
        0x00001f62:    d11a        ..      BNE      0x1f9a ; _printf_core + 306
        0x00001f64:    e1a5        ..      B        0x22b2 ; _printf_core + 1098
        0x00001f66:    e018        ..      B        0x1f9a ; _printf_core + 306
        0x00001f68:    2863        c(      CMP      r0,#0x63
        0x00001f6a:    d035        5.      BEQ      0x1fd8 ; _printf_core + 368
        0x00001f6c:    2864        d(      CMP      r0,#0x64
        0x00001f6e:    d070        p.      BEQ      0x2052 ; _printf_core + 490
        0x00001f70:    2865        e(      CMP      r0,#0x65
        0x00001f72:    d112        ..      BNE      0x1f9a ; _printf_core + 306
        0x00001f74:    e19d        ..      B        0x22b2 ; _printf_core + 1098
        0x00001f76:    2870        p(      CMP      r0,#0x70
        0x00001f78:    d06c        l.      BEQ      0x2054 ; _printf_core + 492
        0x00001f7a:    dc08        ..      BGT      0x1f8e ; _printf_core + 294
        0x00001f7c:    2867        g(      CMP      r0,#0x67
        0x00001f7e:    d0f1        ..      BEQ      0x1f64 ; _printf_core + 252
        0x00001f80:    2869        i(      CMP      r0,#0x69
        0x00001f82:    d07b        {.      BEQ      0x207c ; _printf_core + 532
        0x00001f84:    286e        n(      CMP      r0,#0x6e
        0x00001f86:    d00d        ..      BEQ      0x1fa4 ; _printf_core + 316
        0x00001f88:    286f        o(      CMP      r0,#0x6f
        0x00001f8a:    d106        ..      BNE      0x1f9a ; _printf_core + 306
        0x00001f8c:    e0ba        ..      B        0x2104 ; _printf_core + 668
        0x00001f8e:    2873        s(      CMP      r0,#0x73
        0x00001f90:    d02e        ..      BEQ      0x1ff0 ; _printf_core + 392
        0x00001f92:    2875        u(      CMP      r0,#0x75
        0x00001f94:    d071        q.      BEQ      0x207a ; _printf_core + 530
        0x00001f96:    2878        x(      CMP      r0,#0x78
        0x00001f98:    d059        Y.      BEQ      0x204e ; _printf_core + 486
        0x00001f9a:    9a1a        ..      LDR      r2,[sp,#0x68]
        0x00001f9c:    9919        ..      LDR      r1,[sp,#0x64]
        0x00001f9e:    4790        .G      BLX      r2
        0x00001fa0:    1c6d        m.      ADDS     r5,r5,#1
        0x00001fa2:    e17e        ~.      B        0x22a2 ; _printf_core + 1082
        0x00001fa4:    0260        `.      LSLS     r0,r4,#9
        0x00001fa6:    0f40        @.      LSRS     r0,r0,#29
        0x00001fa8:    2802        .(      CMP      r0,#2
        0x00001faa:    d009        ..      BEQ      0x1fc0 ; _printf_core + 344
        0x00001fac:    2803        .(      CMP      r0,#3
        0x00001fae:    d00d        ..      BEQ      0x1fcc ; _printf_core + 356
        0x00001fb0:    2804        .(      CMP      r0,#4
        0x00001fb2:    9818        ..      LDR      r0,[sp,#0x60]
        0x00001fb4:    6801        .h      LDR      r1,[r0,#0]
        0x00001fb6:    d00d        ..      BEQ      0x1fd4 ; _printf_core + 364
        0x00001fb8:    600d        .`      STR      r5,[r1,#0]
        0x00001fba:    1d00        ..      ADDS     r0,r0,#4
        0x00001fbc:    9018        ..      STR      r0,[sp,#0x60]
        0x00001fbe:    e170        p.      B        0x22a2 ; _printf_core + 1082
        0x00001fc0:    9818        ..      LDR      r0,[sp,#0x60]
        0x00001fc2:    17ea        ..      ASRS     r2,r5,#31
        0x00001fc4:    6801        .h      LDR      r1,[r0,#0]
        0x00001fc6:    600d        .`      STR      r5,[r1,#0]
        0x00001fc8:    604a        J`      STR      r2,[r1,#4]
        0x00001fca:    e7f6        ..      B        0x1fba ; _printf_core + 338
        0x00001fcc:    9818        ..      LDR      r0,[sp,#0x60]
        0x00001fce:    6801        .h      LDR      r1,[r0,#0]
        0x00001fd0:    800d        ..      STRH     r5,[r1,#0]
        0x00001fd2:    e7f2        ..      B        0x1fba ; _printf_core + 338
        0x00001fd4:    700d        .p      STRB     r5,[r1,#0]
        0x00001fd6:    e7f0        ..      B        0x1fba ; _printf_core + 338
        0x00001fd8:    9818        ..      LDR      r0,[sp,#0x60]
        0x00001fda:    466a        jF      MOV      r2,sp
        0x00001fdc:    7801        .x      LDRB     r1,[r0,#0]
        0x00001fde:    7211        .r      STRB     r1,[r2,#8]
        0x00001fe0:    1d00        ..      ADDS     r0,r0,#4
        0x00001fe2:    9018        ..      STR      r0,[sp,#0x60]
        0x00001fe4:    2000        .       MOVS     r0,#0
        0x00001fe6:    7250        Pr      STRB     r0,[r2,#9]
        0x00001fe8:    a802        ..      ADD      r0,sp,#8
        0x00001fea:    9000        ..      STR      r0,[sp,#0]
        0x00001fec:    2001        .       MOVS     r0,#1
        0x00001fee:    e005        ..      B        0x1ffc ; _printf_core + 404
        0x00001ff0:    9818        ..      LDR      r0,[sp,#0x60]
        0x00001ff2:    c802        ..      LDM      r0!,{r1}
        0x00001ff4:    9018        ..      STR      r0,[sp,#0x60]
        0x00001ff6:    2000        .       MOVS     r0,#0
        0x00001ff8:    9100        ..      STR      r1,[sp,#0]
        0x00001ffa:    43c0        .C      MVNS     r0,r0
        0x00001ffc:    0761        a.      LSLS     r1,r4,#29
        0x00001ffe:    d50d        ..      BPL      0x201c ; _printf_core + 436
        0x00002000:    2100        .!      MOVS     r1,#0
        0x00002002:    e001        ..      B        0x2008 ; _printf_core + 416
        0x00002004:    9901        ..      LDR      r1,[sp,#4]
        0x00002006:    1c49        I.      ADDS     r1,r1,#1
        0x00002008:    9101        ..      STR      r1,[sp,#4]
        0x0000200a:    42b9        .B      CMP      r1,r7
        0x0000200c:    da12        ..      BGE      0x2034 ; _printf_core + 460
        0x0000200e:    4281        .B      CMP      r1,r0
        0x00002010:    dbf8        ..      BLT      0x2004 ; _printf_core + 412
        0x00002012:    9a00        ..      LDR      r2,[sp,#0]
        0x00002014:    5c51        Q\      LDRB     r1,[r2,r1]
        0x00002016:    2900        .)      CMP      r1,#0
        0x00002018:    d1f4        ..      BNE      0x2004 ; _printf_core + 412
        0x0000201a:    e00b        ..      B        0x2034 ; _printf_core + 460
        0x0000201c:    2100        .!      MOVS     r1,#0
        0x0000201e:    e001        ..      B        0x2024 ; _printf_core + 444
        0x00002020:    9901        ..      LDR      r1,[sp,#4]
        0x00002022:    1c49        I.      ADDS     r1,r1,#1
        0x00002024:    9101        ..      STR      r1,[sp,#4]
        0x00002026:    4281        .B      CMP      r1,r0
        0x00002028:    dbfa        ..      BLT      0x2020 ; _printf_core + 440
        0x0000202a:    9a01        ..      LDR      r2,[sp,#4]
        0x0000202c:    9900        ..      LDR      r1,[sp,#0]
        0x0000202e:    5c89        .\      LDRB     r1,[r1,r2]
        0x00002030:    2900        .)      CMP      r1,#0
        0x00002032:    d1f5        ..      BNE      0x2020 ; _printf_core + 440
        0x00002034:    9901        ..      LDR      r1,[sp,#4]
        0x00002036:    9804        ..      LDR      r0,[sp,#0x10]
        0x00002038:    9b1a        ..      LDR      r3,[sp,#0x68]
        0x0000203a:    1a47        G.      SUBS     r7,r0,r1
        0x0000203c:    4621        !F      MOV      r1,r4
        0x0000203e:    4638        8F      MOV      r0,r7
        0x00002040:    9a19        ..      LDR      r2,[sp,#0x64]
        0x00002042:    f000fa97    ....    BL       _printf_pre_padding ; 0x2574
        0x00002046:    9901        ..      LDR      r1,[sp,#4]
        0x00002048:    1940        @.      ADDS     r0,r0,r5
        0x0000204a:    1845        E.      ADDS     r5,r0,r1
        0x0000204c:    e00b        ..      B        0x2066 ; _printf_core + 510
        0x0000204e:    e04f        O.      B        0x20f0 ; _printf_core + 648
        0x00002050:    e12c        ,.      B        0x22ac ; _printf_core + 1092
        0x00002052:    e013        ..      B        0x207c ; _printf_core + 532
        0x00002054:    e04e        N.      B        0x20f4 ; _printf_core + 652
        0x00002056:    9800        ..      LDR      r0,[sp,#0]
        0x00002058:    9900        ..      LDR      r1,[sp,#0]
        0x0000205a:    7800        .x      LDRB     r0,[r0,#0]
        0x0000205c:    1c49        I.      ADDS     r1,r1,#1
        0x0000205e:    9100        ..      STR      r1,[sp,#0]
        0x00002060:    9a1a        ..      LDR      r2,[sp,#0x68]
        0x00002062:    9919        ..      LDR      r1,[sp,#0x64]
        0x00002064:    4790        .G      BLX      r2
        0x00002066:    9801        ..      LDR      r0,[sp,#4]
        0x00002068:    1e40        @.      SUBS     r0,r0,#1
        0x0000206a:    9001        ..      STR      r0,[sp,#4]
        0x0000206c:    1c40        @.      ADDS     r0,r0,#1
        0x0000206e:    d1f2        ..      BNE      0x2056 ; _printf_core + 494
        0x00002070:    4621        !F      MOV      r1,r4
        0x00002072:    4638        8F      MOV      r0,r7
        0x00002074:    9b1a        ..      LDR      r3,[sp,#0x68]
        0x00002076:    9a19        ..      LDR      r2,[sp,#0x64]
        0x00002078:    e110        ..      B        0x229c ; _printf_core + 1076
        0x0000207a:    e037        7.      B        0x20ec ; _printf_core + 644
        0x0000207c:    200a        .       MOVS     r0,#0xa
        0x0000207e:    2100        .!      MOVS     r1,#0
        0x00002080:    9000        ..      STR      r0,[sp,#0]
        0x00002082:    9101        ..      STR      r1,[sp,#4]
        0x00002084:    0260        `.      LSLS     r0,r4,#9
        0x00002086:    0f41        A.      LSRS     r1,r0,#29
        0x00002088:    2902        .)      CMP      r1,#2
        0x0000208a:    d007        ..      BEQ      0x209c ; _printf_core + 564
        0x0000208c:    9a18        ..      LDR      r2,[sp,#0x60]
        0x0000208e:    ca01        ..      LDM      r2!,{r0}
        0x00002090:    9218        ..      STR      r2,[sp,#0x60]
        0x00002092:    17c2        ..      ASRS     r2,r0,#31
        0x00002094:    4694        .F      MOV      r12,r2
        0x00002096:    2903        .)      CMP      r1,#3
        0x00002098:    d008        ..      BEQ      0x20ac ; _printf_core + 580
        0x0000209a:    e00a        ..      B        0x20b2 ; _printf_core + 586
        0x0000209c:    9818        ..      LDR      r0,[sp,#0x60]
        0x0000209e:    1dc0        ..      ADDS     r0,r0,#7
        0x000020a0:    08c1        ..      LSRS     r1,r0,#3
        0x000020a2:    00c9        ..      LSLS     r1,r1,#3
        0x000020a4:    c905        ..      LDM      r1!,{r0,r2}
        0x000020a6:    9118        ..      STR      r1,[sp,#0x60]
        0x000020a8:    4694        .F      MOV      r12,r2
        0x000020aa:    e007        ..      B        0x20bc ; _printf_core + 596
        0x000020ac:    b200        ..      SXTH     r0,r0
        0x000020ae:    17c2        ..      ASRS     r2,r0,#31
        0x000020b0:    4694        .F      MOV      r12,r2
        0x000020b2:    2904        .)      CMP      r1,#4
        0x000020b4:    d102        ..      BNE      0x20bc ; _printf_core + 596
        0x000020b6:    b240        @.      SXTB     r0,r0
        0x000020b8:    17c1        ..      ASRS     r1,r0,#31
        0x000020ba:    468c        .F      MOV      r12,r1
        0x000020bc:    2200        ."      MOVS     r2,#0
        0x000020be:    4661        aF      MOV      r1,r12
        0x000020c0:    4594        .E      CMP      r12,r2
        0x000020c2:    da06        ..      BGE      0x20d2 ; _printf_core + 618
        0x000020c4:    460a        .F      MOV      r2,r1
        0x000020c6:    2100        .!      MOVS     r1,#0
        0x000020c8:    4240        @B      RSBS     r0,r0,#0
        0x000020ca:    4191        .A      SBCS     r1,r1,r2
        0x000020cc:    468c        .F      MOV      r12,r1
        0x000020ce:    212d        -!      MOVS     r1,#0x2d
        0x000020d0:    e002        ..      B        0x20d8 ; _printf_core + 624
        0x000020d2:    0521        !.      LSLS     r1,r4,#20
        0x000020d4:    d504        ..      BPL      0x20e0 ; _printf_core + 632
        0x000020d6:    212b        +!      MOVS     r1,#0x2b
        0x000020d8:    466a        jF      MOV      r2,sp
        0x000020da:    7311        .s      STRB     r1,[r2,#0xc]
        0x000020dc:    2101        .!      MOVS     r1,#1
        0x000020de:    e003        ..      B        0x20e8 ; _printf_core + 640
        0x000020e0:    07e1        ..      LSLS     r1,r4,#31
        0x000020e2:    d001        ..      BEQ      0x20e8 ; _printf_core + 640
        0x000020e4:    2120         !      MOVS     r1,#0x20
        0x000020e6:    e7f7        ..      B        0x20d8 ; _printf_core + 624
        0x000020e8:    9102        ..      STR      r1,[sp,#8]
        0x000020ea:    e055        U.      B        0x2198 ; _printf_core + 816
        0x000020ec:    200a        .       MOVS     r0,#0xa
        0x000020ee:    e00a        ..      B        0x2106 ; _printf_core + 670
        0x000020f0:    2010        .       MOVS     r0,#0x10
        0x000020f2:    e008        ..      B        0x2106 ; _printf_core + 670
        0x000020f4:    2010        .       MOVS     r0,#0x10
        0x000020f6:    9000        ..      STR      r0,[sp,#0]
        0x000020f8:    2100        .!      MOVS     r1,#0
        0x000020fa:    2004        .       MOVS     r0,#4
        0x000020fc:    4304        .C      ORRS     r4,r4,r0
        0x000020fe:    9101        ..      STR      r1,[sp,#4]
        0x00002100:    2708        .'      MOVS     r7,#8
        0x00002102:    e003        ..      B        0x210c ; _printf_core + 676
        0x00002104:    2008        .       MOVS     r0,#8
        0x00002106:    2100        .!      MOVS     r1,#0
        0x00002108:    9101        ..      STR      r1,[sp,#4]
        0x0000210a:    9000        ..      STR      r0,[sp,#0]
        0x0000210c:    0260        `.      LSLS     r0,r4,#9
        0x0000210e:    0f41        A.      LSRS     r1,r0,#29
        0x00002110:    2902        .)      CMP      r1,#2
        0x00002112:    d007        ..      BEQ      0x2124 ; _printf_core + 700
        0x00002114:    9a18        ..      LDR      r2,[sp,#0x60]
        0x00002116:    ca01        ..      LDM      r2!,{r0}
        0x00002118:    9218        ..      STR      r2,[sp,#0x60]
        0x0000211a:    2200        ."      MOVS     r2,#0
        0x0000211c:    4694        .F      MOV      r12,r2
        0x0000211e:    2903        .)      CMP      r1,#3
        0x00002120:    d008        ..      BEQ      0x2134 ; _printf_core + 716
        0x00002122:    e008        ..      B        0x2136 ; _printf_core + 718
        0x00002124:    9818        ..      LDR      r0,[sp,#0x60]
        0x00002126:    1dc0        ..      ADDS     r0,r0,#7
        0x00002128:    08c1        ..      LSRS     r1,r0,#3
        0x0000212a:    00c9        ..      LSLS     r1,r1,#3
        0x0000212c:    c905        ..      LDM      r1!,{r0,r2}
        0x0000212e:    9118        ..      STR      r1,[sp,#0x60]
        0x00002130:    4694        .F      MOV      r12,r2
        0x00002132:    e003        ..      B        0x213c ; _printf_core + 724
        0x00002134:    b280        ..      UXTH     r0,r0
        0x00002136:    2904        .)      CMP      r1,#4
        0x00002138:    d100        ..      BNE      0x213c ; _printf_core + 724
        0x0000213a:    b2c0        ..      UXTB     r0,r0
        0x0000213c:    2100        .!      MOVS     r1,#0
        0x0000213e:    9102        ..      STR      r1,[sp,#8]
        0x00002140:    0721        !.      LSLS     r1,r4,#28
        0x00002142:    d529        ).      BPL      0x2198 ; _printf_core + 816
        0x00002144:    9911        ..      LDR      r1,[sp,#0x44]
        0x00002146:    2970        p)      CMP      r1,#0x70
        0x00002148:    d006        ..      BEQ      0x2158 ; _printf_core + 752
        0x0000214a:    9a00        ..      LDR      r2,[sp,#0]
        0x0000214c:    2110        .!      MOVS     r1,#0x10
        0x0000214e:    9b01        ..      LDR      r3,[sp,#4]
        0x00002150:    404a        J@      EORS     r2,r2,r1
        0x00002152:    431a        .C      ORRS     r2,r2,r3
        0x00002154:    d005        ..      BEQ      0x2162 ; _printf_core + 762
        0x00002156:    e00e        ..      B        0x2176 ; _printf_core + 782
        0x00002158:    2140        @!      MOVS     r1,#0x40
        0x0000215a:    466a        jF      MOV      r2,sp
        0x0000215c:    7311        .s      STRB     r1,[r2,#0xc]
        0x0000215e:    2101        .!      MOVS     r1,#1
        0x00002160:    e008        ..      B        0x2174 ; _printf_core + 780
        0x00002162:    4661        aF      MOV      r1,r12
        0x00002164:    4301        .C      ORRS     r1,r1,r0
        0x00002166:    d006        ..      BEQ      0x2176 ; _printf_core + 782
        0x00002168:    2130        0!      MOVS     r1,#0x30
        0x0000216a:    466a        jF      MOV      r2,sp
        0x0000216c:    7311        .s      STRB     r1,[r2,#0xc]
        0x0000216e:    9911        ..      LDR      r1,[sp,#0x44]
        0x00002170:    7351        Qs      STRB     r1,[r2,#0xd]
        0x00002172:    2102        .!      MOVS     r1,#2
        0x00002174:    9102        ..      STR      r1,[sp,#8]
        0x00002176:    9a00        ..      LDR      r2,[sp,#0]
        0x00002178:    2108        .!      MOVS     r1,#8
        0x0000217a:    9b01        ..      LDR      r3,[sp,#4]
        0x0000217c:    404a        J@      EORS     r2,r2,r1
        0x0000217e:    431a        .C      ORRS     r2,r2,r3
        0x00002180:    d10a        ..      BNE      0x2198 ; _printf_core + 816
        0x00002182:    4661        aF      MOV      r1,r12
        0x00002184:    4301        .C      ORRS     r1,r1,r0
        0x00002186:    d101        ..      BNE      0x218c ; _printf_core + 804
        0x00002188:    0761        a.      LSLS     r1,r4,#29
        0x0000218a:    d505        ..      BPL      0x2198 ; _printf_core + 816
        0x0000218c:    2130        0!      MOVS     r1,#0x30
        0x0000218e:    466a        jF      MOV      r2,sp
        0x00002190:    7311        .s      STRB     r1,[r2,#0xc]
        0x00002192:    2101        .!      MOVS     r1,#1
        0x00002194:    1e7f        ..      SUBS     r7,r7,#1
        0x00002196:    9102        ..      STR      r1,[sp,#8]
        0x00002198:    9911        ..      LDR      r1,[sp,#0x44]
        0x0000219a:    2958        X)      CMP      r1,#0x58
        0x0000219c:    d004        ..      BEQ      0x21a8 ; _printf_core + 832
        0x0000219e:    a135        5.      ADR      r1,{pc}+0xd6 ; 0x2274
        0x000021a0:    910e        ..      STR      r1,[sp,#0x38]
        0x000021a2:    a90d        ..      ADD      r1,sp,#0x34
        0x000021a4:    910d        ..      STR      r1,[sp,#0x34]
        0x000021a6:    e00d        ..      B        0x21c4 ; _printf_core + 860
        0x000021a8:    a137        7.      ADR      r1,{pc}+0xe0 ; 0x2288
        0x000021aa:    e7f9        ..      B        0x21a0 ; _printf_core + 824
        0x000021ac:    4661        aF      MOV      r1,r12
        0x000021ae:    9b01        ..      LDR      r3,[sp,#4]
        0x000021b0:    9a00        ..      LDR      r2,[sp,#0]
        0x000021b2:    f7fef8b4    ....    BL       __aeabi_uldivmod ; 0x31e
        0x000021b6:    9b0e        ..      LDR      r3,[sp,#0x38]
        0x000021b8:    468c        .F      MOV      r12,r1
        0x000021ba:    5c9b        .\      LDRB     r3,[r3,r2]
        0x000021bc:    9a0d        ..      LDR      r2,[sp,#0x34]
        0x000021be:    1e52        R.      SUBS     r2,r2,#1
        0x000021c0:    920d        ..      STR      r2,[sp,#0x34]
        0x000021c2:    7013        .p      STRB     r3,[r2,#0]
        0x000021c4:    4661        aF      MOV      r1,r12
        0x000021c6:    4301        .C      ORRS     r1,r1,r0
        0x000021c8:    d1f0        ..      BNE      0x21ac ; _printf_core + 836
        0x000021ca:    980d        ..      LDR      r0,[sp,#0x34]
        0x000021cc:    a905        ..      ADD      r1,sp,#0x14
        0x000021ce:    1a08        ..      SUBS     r0,r1,r0
        0x000021d0:    3020         0      ADDS     r0,r0,#0x20
        0x000021d2:    9001        ..      STR      r0,[sp,#4]
        0x000021d4:    0760        `.      LSLS     r0,r4,#29
        0x000021d6:    d503        ..      BPL      0x21e0 ; _printf_core + 888
        0x000021d8:    2001        .       MOVS     r0,#1
        0x000021da:    0400        ..      LSLS     r0,r0,#16
        0x000021dc:    4384        .C      BICS     r4,r4,r0
        0x000021de:    e000        ..      B        0x21e2 ; _printf_core + 890
        0x000021e0:    2701        .'      MOVS     r7,#1
        0x000021e2:    9801        ..      LDR      r0,[sp,#4]
        0x000021e4:    4287        .B      CMP      r7,r0
        0x000021e6:    dd01        ..      BLE      0x21ec ; _printf_core + 900
        0x000021e8:    1a38        8.      SUBS     r0,r7,r0
        0x000021ea:    e000        ..      B        0x21ee ; _printf_core + 902
        0x000021ec:    2000        .       MOVS     r0,#0
        0x000021ee:    9901        ..      LDR      r1,[sp,#4]
        0x000021f0:    9000        ..      STR      r0,[sp,#0]
        0x000021f2:    1841        A.      ADDS     r1,r0,r1
        0x000021f4:    9802        ..      LDR      r0,[sp,#8]
        0x000021f6:    1809        ..      ADDS     r1,r1,r0
        0x000021f8:    9804        ..      LDR      r0,[sp,#0x10]
        0x000021fa:    1a40        @.      SUBS     r0,r0,r1
        0x000021fc:    9004        ..      STR      r0,[sp,#0x10]
        0x000021fe:    03e0        ..      LSLS     r0,r4,#15
        0x00002200:    d406        ..      BMI      0x2210 ; _printf_core + 936
        0x00002202:    4621        !F      MOV      r1,r4
        0x00002204:    9b1a        ..      LDR      r3,[sp,#0x68]
        0x00002206:    9a19        ..      LDR      r2,[sp,#0x64]
        0x00002208:    9804        ..      LDR      r0,[sp,#0x10]
        0x0000220a:    f000f9b3    ....    BL       _printf_pre_padding ; 0x2574
        0x0000220e:    1945        E.      ADDS     r5,r0,r5
        0x00002210:    2700        .'      MOVS     r7,#0
        0x00002212:    e006        ..      B        0x2222 ; _printf_core + 954
        0x00002214:    a803        ..      ADD      r0,sp,#0xc
        0x00002216:    9a1a        ..      LDR      r2,[sp,#0x68]
        0x00002218:    5dc0        .]      LDRB     r0,[r0,r7]
        0x0000221a:    9919        ..      LDR      r1,[sp,#0x64]
        0x0000221c:    4790        .G      BLX      r2
        0x0000221e:    1c6d        m.      ADDS     r5,r5,#1
        0x00002220:    1c7f        ..      ADDS     r7,r7,#1
        0x00002222:    9802        ..      LDR      r0,[sp,#8]
        0x00002224:    4287        .B      CMP      r7,r0
        0x00002226:    dbf5        ..      BLT      0x2214 ; _printf_core + 940
        0x00002228:    03e0        ..      LSLS     r0,r4,#15
        0x0000222a:    d50c        ..      BPL      0x2246 ; _printf_core + 990
        0x0000222c:    4621        !F      MOV      r1,r4
        0x0000222e:    9b1a        ..      LDR      r3,[sp,#0x68]
        0x00002230:    9a19        ..      LDR      r2,[sp,#0x64]
        0x00002232:    9804        ..      LDR      r0,[sp,#0x10]
        0x00002234:    f000f99e    ....    BL       _printf_pre_padding ; 0x2574
        0x00002238:    1945        E.      ADDS     r5,r0,r5
        0x0000223a:    e004        ..      B        0x2246 ; _printf_core + 990
        0x0000223c:    9a1a        ..      LDR      r2,[sp,#0x68]
        0x0000223e:    2030        0       MOVS     r0,#0x30
        0x00002240:    9919        ..      LDR      r1,[sp,#0x64]
        0x00002242:    4790        .G      BLX      r2
        0x00002244:    1c6d        m.      ADDS     r5,r5,#1
        0x00002246:    9900        ..      LDR      r1,[sp,#0]
        0x00002248:    1e48        H.      SUBS     r0,r1,#1
        0x0000224a:    9000        ..      STR      r0,[sp,#0]
        0x0000224c:    2900        .)      CMP      r1,#0
        0x0000224e:    dcf5        ..      BGT      0x223c ; _printf_core + 980
        0x00002250:    e008        ..      B        0x2264 ; _printf_core + 1020
        0x00002252:    980d        ..      LDR      r0,[sp,#0x34]
        0x00002254:    990d        ..      LDR      r1,[sp,#0x34]
        0x00002256:    7800        .x      LDRB     r0,[r0,#0]
        0x00002258:    1c49        I.      ADDS     r1,r1,#1
        0x0000225a:    910d        ..      STR      r1,[sp,#0x34]
        0x0000225c:    9a1a        ..      LDR      r2,[sp,#0x68]
        0x0000225e:    9919        ..      LDR      r1,[sp,#0x64]
        0x00002260:    4790        .G      BLX      r2
        0x00002262:    1c6d        m.      ADDS     r5,r5,#1
        0x00002264:    9901        ..      LDR      r1,[sp,#4]
        0x00002266:    1e48        H.      SUBS     r0,r1,#1
        0x00002268:    9001        ..      STR      r0,[sp,#4]
        0x0000226a:    2900        .)      CMP      r1,#0
        0x0000226c:    dcf1        ..      BGT      0x2252 ; _printf_core + 1002
        0x0000226e:    e163        c.      B        0x2538 ; _printf_core + 1744
    $d
        0x00002270:    00012809    .(..    DCD    75785
        0x00002274:    33323130    0123    DCD    858927408
        0x00002278:    37363534    4567    DCD    926299444
        0x0000227c:    62613938    89ab    DCD    1650538808
        0x00002280:    66656463    cdef    DCD    1717920867
        0x00002284:    00000000    ....    DCD    0
        0x00002288:    33323130    0123    DCD    858927408
        0x0000228c:    37363534    4567    DCD    926299444
        0x00002290:    42413938    89AB    DCD    1111570744
        0x00002294:    46454443    CDEF    DCD    1178944579
        0x00002298:    00000000    ....    DCD    0
    $t
        0x0000229c:    f000f95a    ..Z.    BL       _printf_post_padding ; 0x2554
        0x000022a0:    1945        E.      ADDS     r5,r0,r5
        0x000022a2:    1c76        v.      ADDS     r6,r6,#1
        0x000022a4:    7830        0x      LDRB     r0,[r6,#0]
        0x000022a6:    2800        .(      CMP      r0,#0
        0x000022a8:    d000        ..      BEQ      0x22ac ; _printf_core + 1092
        0x000022aa:    e5e2        ..      B        0x1e72 ; _printf_core + 10
        0x000022ac:    4628        (F      MOV      r0,r5
        0x000022ae:    b01b        ..      ADD      sp,sp,#0x6c
        0x000022b0:    bdf0        ..      POP      {r4-r7,pc}
        0x000022b2:    0760        `.      LSLS     r0,r4,#29
        0x000022b4:    d400        ..      BMI      0x22b8 ; _printf_core + 1104
        0x000022b6:    2706        .'      MOVS     r7,#6
        0x000022b8:    9818        ..      LDR      r0,[sp,#0x60]
        0x000022ba:    1dc0        ..      ADDS     r0,r0,#7
        0x000022bc:    08c1        ..      LSRS     r1,r0,#3
        0x000022be:    00c9        ..      LSLS     r1,r1,#3
        0x000022c0:    6848        Hh      LDR      r0,[r1,#4]
        0x000022c2:    680a        .h      LDR      r2,[r1,#0]
        0x000022c4:    3108        .1      ADDS     r1,r1,#8
        0x000022c6:    0fc3        ..      LSRS     r3,r0,#31
        0x000022c8:    07db        ..      LSLS     r3,r3,#31
        0x000022ca:    9118        ..      STR      r1,[sp,#0x60]
        0x000022cc:    0019        ..      MOVS     r1,r3
        0x000022ce:    d001        ..      BEQ      0x22d4 ; _printf_core + 1132
        0x000022d0:    a19c        ..      ADR      r1,{pc}+0x274 ; 0x2544
        0x000022d2:    e008        ..      B        0x22e6 ; _printf_core + 1150
        0x000022d4:    0521        !.      LSLS     r1,r4,#20
        0x000022d6:    d501        ..      BPL      0x22dc ; _printf_core + 1140
        0x000022d8:    a19b        ..      ADR      r1,{pc}+0x270 ; 0x2548
        0x000022da:    e004        ..      B        0x22e6 ; _printf_core + 1150
        0x000022dc:    07e1        ..      LSLS     r1,r4,#31
        0x000022de:    d001        ..      BEQ      0x22e4 ; _printf_core + 1148
        0x000022e0:    a19a        ..      ADR      r1,{pc}+0x26c ; 0x254c
        0x000022e2:    e000        ..      B        0x22e6 ; _printf_core + 1150
        0x000022e4:    a19a        ..      ADR      r1,{pc}+0x26c ; 0x2550
        0x000022e6:    0043        C.      LSLS     r3,r0,#1
        0x000022e8:    9811        ..      LDR      r0,[sp,#0x44]
        0x000022ea:    085b        [.      LSRS     r3,r3,#1
        0x000022ec:    9110        ..      STR      r1,[sp,#0x40]
        0x000022ee:    2865        e(      CMP      r0,#0x65
        0x000022f0:    d00c        ..      BEQ      0x230c ; _printf_core + 1188
        0x000022f2:    dc06        ..      BGT      0x2302 ; _printf_core + 1178
        0x000022f4:    2845        E(      CMP      r0,#0x45
        0x000022f6:    d009        ..      BEQ      0x230c ; _printf_core + 1188
        0x000022f8:    2846        F(      CMP      r0,#0x46
        0x000022fa:    d01d        ..      BEQ      0x2338 ; _printf_core + 1232
        0x000022fc:    2847        G(      CMP      r0,#0x47
        0x000022fe:    d141        A.      BNE      0x2384 ; _printf_core + 1308
        0x00002300:    e041        A.      B        0x2386 ; _printf_core + 1310
        0x00002302:    2866        f(      CMP      r0,#0x66
        0x00002304:    d018        ..      BEQ      0x2338 ; _printf_core + 1232
        0x00002306:    2867        g(      CMP      r0,#0x67
        0x00002308:    d13c        <.      BNE      0x2384 ; _printf_core + 1308
        0x0000230a:    e03c        <.      B        0x2386 ; _printf_core + 1310
        0x0000230c:    2100        .!      MOVS     r1,#0
        0x0000230e:    2f11        ./      CMP      r7,#0x11
        0x00002310:    db01        ..      BLT      0x2316 ; _printf_core + 1198
        0x00002312:    2011        .       MOVS     r0,#0x11
        0x00002314:    e000        ..      B        0x2318 ; _printf_core + 1200
        0x00002316:    1c78        x.      ADDS     r0,r7,#1
        0x00002318:    9101        ..      STR      r1,[sp,#4]
        0x0000231a:    9000        ..      STR      r0,[sp,#0]
        0x0000231c:    a908        ..      ADD      r1,sp,#0x20
        0x0000231e:    a811        ..      ADD      r0,sp,#0x44
        0x00002320:    f7fffce8    ....    BL       _fp_digits ; 0x1cf4
        0x00002324:    9913        ..      LDR      r1,[sp,#0x4c]
        0x00002326:    9105        ..      STR      r1,[sp,#0x14]
        0x00002328:    2100        .!      MOVS     r1,#0
        0x0000232a:    9a11        ..      LDR      r2,[sp,#0x44]
        0x0000232c:    9215        ..      STR      r2,[sp,#0x54]
        0x0000232e:    1c7f        ..      ADDS     r7,r7,#1
        0x00002330:    9812        ..      LDR      r0,[sp,#0x48]
        0x00002332:    9701        ..      STR      r7,[sp,#4]
        0x00002334:    9100        ..      STR      r1,[sp,#0]
        0x00002336:    e050        P.      B        0x23da ; _printf_core + 1394
        0x00002338:    2001        .       MOVS     r0,#1
        0x0000233a:    07c0        ..      LSLS     r0,r0,#31
        0x0000233c:    9003        ..      STR      r0,[sp,#0xc]
        0x0000233e:    2001        .       MOVS     r0,#1
        0x00002340:    9001        ..      STR      r0,[sp,#4]
        0x00002342:    a908        ..      ADD      r1,sp,#0x20
        0x00002344:    9700        ..      STR      r7,[sp,#0]
        0x00002346:    a811        ..      ADD      r0,sp,#0x44
        0x00002348:    f7fffcd4    ....    BL       _fp_digits ; 0x1cf4
        0x0000234c:    9a13        ..      LDR      r2,[sp,#0x4c]
        0x0000234e:    9914        ..      LDR      r1,[sp,#0x50]
        0x00002350:    9205        ..      STR      r2,[sp,#0x14]
        0x00002352:    2200        ."      MOVS     r2,#0
        0x00002354:    9b11        ..      LDR      r3,[sp,#0x44]
        0x00002356:    9200        ..      STR      r2,[sp,#0]
        0x00002358:    9812        ..      LDR      r0,[sp,#0x48]
        0x0000235a:    9315        ..      STR      r3,[sp,#0x54]
        0x0000235c:    9a05        ..      LDR      r2,[sp,#0x14]
        0x0000235e:    9201        ..      STR      r2,[sp,#4]
        0x00002360:    2900        .)      CMP      r1,#0
        0x00002362:    d001        ..      BEQ      0x2368 ; _printf_core + 1280
        0x00002364:    4610        .F      MOV      r0,r2
        0x00002366:    e002        ..      B        0x236e ; _printf_core + 1286
        0x00002368:    1c79        y.      ADDS     r1,r7,#1
        0x0000236a:    1840        @.      ADDS     r0,r0,r1
        0x0000236c:    9001        ..      STR      r0,[sp,#4]
        0x0000236e:    1a38        8.      SUBS     r0,r7,r0
        0x00002370:    d501        ..      BPL      0x2376 ; _printf_core + 1294
        0x00002372:    9801        ..      LDR      r0,[sp,#4]
        0x00002374:    e004        ..      B        0x2380 ; _printf_core + 1304
        0x00002376:    4240        @B      RSBS     r0,r0,#0
        0x00002378:    1e40        @.      SUBS     r0,r0,#1
        0x0000237a:    9000        ..      STR      r0,[sp,#0]
        0x0000237c:    1c78        x.      ADDS     r0,r7,#1
        0x0000237e:    9001        ..      STR      r0,[sp,#4]
        0x00002380:    1bc0        ..      SUBS     r0,r0,r7
        0x00002382:    9002        ..      STR      r0,[sp,#8]
        0x00002384:    e043        C.      B        0x240e ; _printf_core + 1446
        0x00002386:    2f01        ./      CMP      r7,#1
        0x00002388:    da00        ..      BGE      0x238c ; _printf_core + 1316
        0x0000238a:    2701        .'      MOVS     r7,#1
        0x0000238c:    2100        .!      MOVS     r1,#0
        0x0000238e:    2f11        ./      CMP      r7,#0x11
        0x00002390:    dd01        ..      BLE      0x2396 ; _printf_core + 1326
        0x00002392:    2011        .       MOVS     r0,#0x11
        0x00002394:    e000        ..      B        0x2398 ; _printf_core + 1328
        0x00002396:    4638        8F      MOV      r0,r7
        0x00002398:    9101        ..      STR      r1,[sp,#4]
        0x0000239a:    9000        ..      STR      r0,[sp,#0]
        0x0000239c:    a908        ..      ADD      r1,sp,#0x20
        0x0000239e:    a811        ..      ADD      r0,sp,#0x44
        0x000023a0:    f7fffca8    ....    BL       _fp_digits ; 0x1cf4
        0x000023a4:    9913        ..      LDR      r1,[sp,#0x4c]
        0x000023a6:    9105        ..      STR      r1,[sp,#0x14]
        0x000023a8:    9a11        ..      LDR      r2,[sp,#0x44]
        0x000023aa:    2100        .!      MOVS     r1,#0
        0x000023ac:    9812        ..      LDR      r0,[sp,#0x48]
        0x000023ae:    9215        ..      STR      r2,[sp,#0x54]
        0x000023b0:    9100        ..      STR      r1,[sp,#0]
        0x000023b2:    9701        ..      STR      r7,[sp,#4]
        0x000023b4:    0721        !.      LSLS     r1,r4,#28
        0x000023b6:    d40c        ..      BMI      0x23d2 ; _printf_core + 1386
        0x000023b8:    9905        ..      LDR      r1,[sp,#0x14]
        0x000023ba:    42b9        .B      CMP      r1,r7
        0x000023bc:    db01        ..      BLT      0x23c2 ; _printf_core + 1370
        0x000023be:    9901        ..      LDR      r1,[sp,#4]
        0x000023c0:    e000        ..      B        0x23c4 ; _printf_core + 1372
        0x000023c2:    9101        ..      STR      r1,[sp,#4]
        0x000023c4:    2901        .)      CMP      r1,#1
        0x000023c6:    dd04        ..      BLE      0x23d2 ; _printf_core + 1386
        0x000023c8:    9a15        ..      LDR      r2,[sp,#0x54]
        0x000023ca:    1e49        I.      SUBS     r1,r1,#1
        0x000023cc:    5c51        Q\      LDRB     r1,[r2,r1]
        0x000023ce:    2930        0)      CMP      r1,#0x30
        0x000023d0:    d006        ..      BEQ      0x23e0 ; _printf_core + 1400
        0x000023d2:    42b8        .B      CMP      r0,r7
        0x000023d4:    da01        ..      BGE      0x23da ; _printf_core + 1394
        0x000023d6:    1d01        ..      ADDS     r1,r0,#4
        0x000023d8:    da05        ..      BGE      0x23e6 ; _printf_core + 1406
        0x000023da:    2101        .!      MOVS     r1,#1
        0x000023dc:    9102        ..      STR      r1,[sp,#8]
        0x000023de:    e015        ..      B        0x240c ; _printf_core + 1444
        0x000023e0:    9901        ..      LDR      r1,[sp,#4]
        0x000023e2:    1e49        I.      SUBS     r1,r1,#1
        0x000023e4:    e7ed        ..      B        0x23c2 ; _printf_core + 1370
        0x000023e6:    2800        .(      CMP      r0,#0
        0x000023e8:    dc05        ..      BGT      0x23f6 ; _printf_core + 1422
        0x000023ea:    9900        ..      LDR      r1,[sp,#0]
        0x000023ec:    1841        A.      ADDS     r1,r0,r1
        0x000023ee:    9100        ..      STR      r1,[sp,#0]
        0x000023f0:    9901        ..      LDR      r1,[sp,#4]
        0x000023f2:    1a09        ..      SUBS     r1,r1,r0
        0x000023f4:    e003        ..      B        0x23fe ; _printf_core + 1430
        0x000023f6:    9a01        ..      LDR      r2,[sp,#4]
        0x000023f8:    1c41        A.      ADDS     r1,r0,#1
        0x000023fa:    4291        .B      CMP      r1,r2
        0x000023fc:    dd00        ..      BLE      0x2400 ; _printf_core + 1432
        0x000023fe:    9101        ..      STR      r1,[sp,#4]
        0x00002400:    9900        ..      LDR      r1,[sp,#0]
        0x00002402:    1a40        @.      SUBS     r0,r0,r1
        0x00002404:    1c40        @.      ADDS     r0,r0,#1
        0x00002406:    9002        ..      STR      r0,[sp,#8]
        0x00002408:    2001        .       MOVS     r0,#1
        0x0000240a:    07c0        ..      LSLS     r0,r0,#31
        0x0000240c:    9003        ..      STR      r0,[sp,#0xc]
        0x0000240e:    0720         .      LSLS     r0,r4,#28
        0x00002410:    d406        ..      BMI      0x2420 ; _printf_core + 1464
        0x00002412:    9902        ..      LDR      r1,[sp,#8]
        0x00002414:    9801        ..      LDR      r0,[sp,#4]
        0x00002416:    4281        .B      CMP      r1,r0
        0x00002418:    db02        ..      BLT      0x2420 ; _printf_core + 1464
        0x0000241a:    2000        .       MOVS     r0,#0
        0x0000241c:    43c0        .C      MVNS     r0,r0
        0x0000241e:    9002        ..      STR      r0,[sp,#8]
        0x00002420:    2000        .       MOVS     r0,#0
        0x00002422:    4669        iF      MOV      r1,sp
        0x00002424:    77c8        .w      STRB     r0,[r1,#0x1f]
        0x00002426:    af07        ..      ADD      r7,sp,#0x1c
        0x00002428:    2101        .!      MOVS     r1,#1
        0x0000242a:    9803        ..      LDR      r0,[sp,#0xc]
        0x0000242c:    3703        .7      ADDS     r7,#3
        0x0000242e:    07c9        ..      LSLS     r1,r1,#31
        0x00002430:    4288        .B      CMP      r0,r1
        0x00002432:    d024        $.      BEQ      0x247e ; _printf_core + 1558
        0x00002434:    2002        .       MOVS     r0,#2
        0x00002436:    9011        ..      STR      r0,[sp,#0x44]
        0x00002438:    202b        +       MOVS     r0,#0x2b
        0x0000243a:    9012        ..      STR      r0,[sp,#0x48]
        0x0000243c:    9803        ..      LDR      r0,[sp,#0xc]
        0x0000243e:    2800        .(      CMP      r0,#0
        0x00002440:    da0c        ..      BGE      0x245c ; _printf_core + 1524
        0x00002442:    4240        @B      RSBS     r0,r0,#0
        0x00002444:    9003        ..      STR      r0,[sp,#0xc]
        0x00002446:    202d        -       MOVS     r0,#0x2d
        0x00002448:    9012        ..      STR      r0,[sp,#0x48]
        0x0000244a:    e007        ..      B        0x245c ; _printf_core + 1524
        0x0000244c:    210a        .!      MOVS     r1,#0xa
        0x0000244e:    9803        ..      LDR      r0,[sp,#0xc]
        0x00002450:    f7fef9ac    ....    BL       __aeabi_uidiv$div0 ; 0x7ac
        0x00002454:    3130        01      ADDS     r1,r1,#0x30
        0x00002456:    1e7f        ..      SUBS     r7,r7,#1
        0x00002458:    9003        ..      STR      r0,[sp,#0xc]
        0x0000245a:    7039        9p      STRB     r1,[r7,#0]
        0x0000245c:    9911        ..      LDR      r1,[sp,#0x44]
        0x0000245e:    1e48        H.      SUBS     r0,r1,#1
        0x00002460:    9011        ..      STR      r0,[sp,#0x44]
        0x00002462:    2900        .)      CMP      r1,#0
        0x00002464:    dcf2        ..      BGT      0x244c ; _printf_core + 1508
        0x00002466:    9803        ..      LDR      r0,[sp,#0xc]
        0x00002468:    2800        .(      CMP      r0,#0
        0x0000246a:    d1ef        ..      BNE      0x244c ; _printf_core + 1508
        0x0000246c:    1e79        y.      SUBS     r1,r7,#1
        0x0000246e:    9812        ..      LDR      r0,[sp,#0x48]
        0x00002470:    7008        .p      STRB     r0,[r1,#0]
        0x00002472:    7830        0x      LDRB     r0,[r6,#0]
        0x00002474:    2120         !      MOVS     r1,#0x20
        0x00002476:    4008        .@      ANDS     r0,r0,r1
        0x00002478:    3045        E0      ADDS     r0,r0,#0x45
        0x0000247a:    1ebf        ..      SUBS     r7,r7,#2
        0x0000247c:    7038        8p      STRB     r0,[r7,#0]
        0x0000247e:    a806        ..      ADD      r0,sp,#0x18
        0x00002480:    1bc0        ..      SUBS     r0,r0,r7
        0x00002482:    1dc0        ..      ADDS     r0,r0,#7
        0x00002484:    9003        ..      STR      r0,[sp,#0xc]
        0x00002486:    9810        ..      LDR      r0,[sp,#0x40]
        0x00002488:    7800        .x      LDRB     r0,[r0,#0]
        0x0000248a:    2800        .(      CMP      r0,#0
        0x0000248c:    d000        ..      BEQ      0x2490 ; _printf_core + 1576
        0x0000248e:    2001        .       MOVS     r0,#1
        0x00002490:    9901        ..      LDR      r1,[sp,#4]
        0x00002492:    1841        A.      ADDS     r1,r0,r1
        0x00002494:    9802        ..      LDR      r0,[sp,#8]
        0x00002496:    17c0        ..      ASRS     r0,r0,#31
        0x00002498:    1809        ..      ADDS     r1,r1,r0
        0x0000249a:    9803        ..      LDR      r0,[sp,#0xc]
        0x0000249c:    1809        ..      ADDS     r1,r1,r0
        0x0000249e:    9804        ..      LDR      r0,[sp,#0x10]
        0x000024a0:    1a40        @.      SUBS     r0,r0,r1
        0x000024a2:    1e40        @.      SUBS     r0,r0,#1
        0x000024a4:    9004        ..      STR      r0,[sp,#0x10]
        0x000024a6:    03e0        ..      LSLS     r0,r4,#15
        0x000024a8:    d406        ..      BMI      0x24b8 ; _printf_core + 1616
        0x000024aa:    4621        !F      MOV      r1,r4
        0x000024ac:    9b1a        ..      LDR      r3,[sp,#0x68]
        0x000024ae:    9a19        ..      LDR      r2,[sp,#0x64]
        0x000024b0:    9804        ..      LDR      r0,[sp,#0x10]
        0x000024b2:    f000f85f    .._.    BL       _printf_pre_padding ; 0x2574
        0x000024b6:    1945        E.      ADDS     r5,r0,r5
        0x000024b8:    9810        ..      LDR      r0,[sp,#0x40]
        0x000024ba:    7800        .x      LDRB     r0,[r0,#0]
        0x000024bc:    2800        .(      CMP      r0,#0
        0x000024be:    d003        ..      BEQ      0x24c8 ; _printf_core + 1632
        0x000024c0:    9a1a        ..      LDR      r2,[sp,#0x68]
        0x000024c2:    9919        ..      LDR      r1,[sp,#0x64]
        0x000024c4:    4790        .G      BLX      r2
        0x000024c6:    1c6d        m.      ADDS     r5,r5,#1
        0x000024c8:    03e0        ..      LSLS     r0,r4,#15
        0x000024ca:    d524        $.      BPL      0x2516 ; _printf_core + 1710
        0x000024cc:    4621        !F      MOV      r1,r4
        0x000024ce:    9b1a        ..      LDR      r3,[sp,#0x68]
        0x000024d0:    9a19        ..      LDR      r2,[sp,#0x64]
        0x000024d2:    9804        ..      LDR      r0,[sp,#0x10]
        0x000024d4:    f000f84e    ..N.    BL       _printf_pre_padding ; 0x2574
        0x000024d8:    1945        E.      ADDS     r5,r0,r5
        0x000024da:    e01c        ..      B        0x2516 ; _printf_core + 1710
        0x000024dc:    9800        ..      LDR      r0,[sp,#0]
        0x000024de:    2800        .(      CMP      r0,#0
        0x000024e0:    db07        ..      BLT      0x24f2 ; _printf_core + 1674
        0x000024e2:    9900        ..      LDR      r1,[sp,#0]
        0x000024e4:    9805        ..      LDR      r0,[sp,#0x14]
        0x000024e6:    4288        .B      CMP      r0,r1
        0x000024e8:    dd03        ..      BLE      0x24f2 ; _printf_core + 1674
        0x000024ea:    9815        ..      LDR      r0,[sp,#0x54]
        0x000024ec:    5c40        @\      LDRB     r0,[r0,r1]
        0x000024ee:    9919        ..      LDR      r1,[sp,#0x64]
        0x000024f0:    e001        ..      B        0x24f6 ; _printf_core + 1678
        0x000024f2:    9919        ..      LDR      r1,[sp,#0x64]
        0x000024f4:    2030        0       MOVS     r0,#0x30
        0x000024f6:    9a1a        ..      LDR      r2,[sp,#0x68]
        0x000024f8:    4790        .G      BLX      r2
        0x000024fa:    9800        ..      LDR      r0,[sp,#0]
        0x000024fc:    1c6d        m.      ADDS     r5,r5,#1
        0x000024fe:    1c40        @.      ADDS     r0,r0,#1
        0x00002500:    9000        ..      STR      r0,[sp,#0]
        0x00002502:    9802        ..      LDR      r0,[sp,#8]
        0x00002504:    1e40        @.      SUBS     r0,r0,#1
        0x00002506:    9002        ..      STR      r0,[sp,#8]
        0x00002508:    2800        .(      CMP      r0,#0
        0x0000250a:    d104        ..      BNE      0x2516 ; _printf_core + 1710
        0x0000250c:    9a1a        ..      LDR      r2,[sp,#0x68]
        0x0000250e:    202e        .       MOVS     r0,#0x2e
        0x00002510:    9919        ..      LDR      r1,[sp,#0x64]
        0x00002512:    4790        .G      BLX      r2
        0x00002514:    1c6d        m.      ADDS     r5,r5,#1
        0x00002516:    9901        ..      LDR      r1,[sp,#4]
        0x00002518:    1e48        H.      SUBS     r0,r1,#1
        0x0000251a:    9001        ..      STR      r0,[sp,#4]
        0x0000251c:    2900        .)      CMP      r1,#0
        0x0000251e:    dcdd        ..      BGT      0x24dc ; _printf_core + 1652
        0x00002520:    e005        ..      B        0x252e ; _printf_core + 1734
        0x00002522:    7838        8x      LDRB     r0,[r7,#0]
        0x00002524:    9a1a        ..      LDR      r2,[sp,#0x68]
        0x00002526:    1c7f        ..      ADDS     r7,r7,#1
        0x00002528:    9919        ..      LDR      r1,[sp,#0x64]
        0x0000252a:    4790        .G      BLX      r2
        0x0000252c:    1c6d        m.      ADDS     r5,r5,#1
        0x0000252e:    9903        ..      LDR      r1,[sp,#0xc]
        0x00002530:    1e48        H.      SUBS     r0,r1,#1
        0x00002532:    9003        ..      STR      r0,[sp,#0xc]
        0x00002534:    2900        .)      CMP      r1,#0
        0x00002536:    dcf4        ..      BGT      0x2522 ; _printf_core + 1722
        0x00002538:    4621        !F      MOV      r1,r4
        0x0000253a:    9b1a        ..      LDR      r3,[sp,#0x68]
        0x0000253c:    9a19        ..      LDR      r2,[sp,#0x64]
        0x0000253e:    9804        ..      LDR      r0,[sp,#0x10]
        0x00002540:    e6ac        ..      B        0x229c ; _printf_core + 1076
    $d
        0x00002542:    0000        ..      DCW    0
        0x00002544:    0000002d    -...    DCD    45
        0x00002548:    0000002b    +...    DCD    43
        0x0000254c:    00000020     ...    DCD    32
        0x00002550:    00000000    ....    DCD    0
    $t
    i._printf_post_padding
    _printf_post_padding
        0x00002554:    b5f8        ..      PUSH     {r3-r7,lr}
        0x00002556:    4604        .F      MOV      r4,r0
        0x00002558:    2500        .%      MOVS     r5,#0
        0x0000255a:    461e        .F      MOV      r6,r3
        0x0000255c:    4617        .F      MOV      r7,r2
        0x0000255e:    0488        ..      LSLS     r0,r1,#18
        0x00002560:    d404        ..      BMI      0x256c ; _printf_post_padding + 24
        0x00002562:    e005        ..      B        0x2570 ; _printf_post_padding + 28
        0x00002564:    4639        9F      MOV      r1,r7
        0x00002566:    2020                MOVS     r0,#0x20
        0x00002568:    47b0        .G      BLX      r6
        0x0000256a:    1c6d        m.      ADDS     r5,r5,#1
        0x0000256c:    1e64        d.      SUBS     r4,r4,#1
        0x0000256e:    d5f9        ..      BPL      0x2564 ; _printf_post_padding + 16
        0x00002570:    4628        (F      MOV      r0,r5
        0x00002572:    bdf8        ..      POP      {r3-r7,pc}
    i._printf_pre_padding
    _printf_pre_padding
        0x00002574:    b5ff        ..      PUSH     {r0-r7,lr}
        0x00002576:    4604        .F      MOV      r4,r0
        0x00002578:    2500        .%      MOVS     r5,#0
        0x0000257a:    b081        ..      SUB      sp,sp,#4
        0x0000257c:    461e        .F      MOV      r6,r3
        0x0000257e:    03c8        ..      LSLS     r0,r1,#15
        0x00002580:    d501        ..      BPL      0x2586 ; _printf_pre_padding + 18
        0x00002582:    2730        0'      MOVS     r7,#0x30
        0x00002584:    e000        ..      B        0x2588 ; _printf_pre_padding + 20
        0x00002586:    2720         '      MOVS     r7,#0x20
        0x00002588:    0488        ..      LSLS     r0,r1,#18
        0x0000258a:    d504        ..      BPL      0x2596 ; _printf_pre_padding + 34
        0x0000258c:    e005        ..      B        0x259a ; _printf_pre_padding + 38
        0x0000258e:    4638        8F      MOV      r0,r7
        0x00002590:    9903        ..      LDR      r1,[sp,#0xc]
        0x00002592:    47b0        .G      BLX      r6
        0x00002594:    1c6d        m.      ADDS     r5,r5,#1
        0x00002596:    1e64        d.      SUBS     r4,r4,#1
        0x00002598:    d5f9        ..      BPL      0x258e ; _printf_pre_padding + 26
        0x0000259a:    4628        (F      MOV      r0,r5
        0x0000259c:    b005        ..      ADD      sp,sp,#0x14
        0x0000259e:    bdf0        ..      POP      {r4-r7,pc}
    i.puts
    puts
        0x000025a0:    b510        ..      PUSH     {r4,lr}
        0x000025a2:    4604        .F      MOV      r4,r0
        0x000025a4:    e001        ..      B        0x25aa ; puts + 10
        0x000025a6:    f7fffb11    ....    BL       fputc ; 0x1bcc
        0x000025aa:    7820         x      LDRB     r0,[r4,#0]
        0x000025ac:    1c64        d.      ADDS     r4,r4,#1
        0x000025ae:    4903        .I      LDR      r1,[pc,#12] ; [0x25bc] = 0x20000010
        0x000025b0:    2800        .(      CMP      r0,#0
        0x000025b2:    d1f8        ..      BNE      0x25a6 ; puts + 6
        0x000025b4:    200a        .       MOVS     r0,#0xa
        0x000025b6:    f7fffb09    ....    BL       fputc ; 0x1bcc
        0x000025ba:    bd10        ..      POP      {r4,pc}
    $d
        0x000025bc:    20000010    ...     DCD    536870928
    $d.realdata
        0x000025c0:    00000000    ....    DCD    0
        0x000025c4:    00000004    ....    DCD    4
        0x000025c8:    00000008    ....    DCD    8
        0x000025cc:    00b71b00    ....    DCD    12000000
        0x000025d0:    00000000    ....    DCD    0
        0x000025d4:    00008000    ....    DCD    32768
        0x000025d8:    02dc6c00    .l..    DCD    48000000
        0x000025dc:    00000000    ....    DCD    0
        0x000025e0:    00009600    ....    DCD    38400
        0x000025e4:    00000000    ....    DCD    0
        0x000025e8:    00000004    ....    DCD    4
        0x000025ec:    00000008    ....    DCD    8
        0x000025f0:    0000000c    ....    DCD    12
        0x000025f4:    04040201    ....    DCD    67371521
    gau32ClkSrcTbl
        0x000025f8:    00b71b00    ....    DCD    12000000
        0x000025fc:    00008000    ....    DCD    32768
        0x00002600:    00000000    ....    DCD    0
        0x00002604:    00009600    ....    DCD    38400
        0x00002608:    00000000    ....    DCD    0
        0x0000260c:    003d8600    ..=.    DCD    4032000
        0x00002610:    00000000    ....    DCD    0
        0x00002614:    02dc6c00    .l..    DCD    48000000
    Region$$Table$$Base
        0x00002618:    00002638    8&..    DCD    9784
        0x0000261c:    20000000    ...     DCD    536870912
        0x00002620:    00000010    ....    DCD    16
        0x00002624:    00001cd6    ....    DCD    7382
        0x00002628:    00002648    H&..    DCD    9800
        0x0000262c:    20000010    ...     DCD    536870928
        0x00002630:    00000860    `...    DCD    2144
        0x00002634:    00001ce6    ....    DCD    7398
    Region$$Table$$Limit

** Section #2 'ER_RW' (SHT_PROGBITS) [SHF_ALLOC + SHF_WRITE]
    Size   : 16 bytes (alignment 4)
    Address: 0x20000000


** Section #3 'ER_ZI' (SHT_NOBITS) [SHF_ALLOC + SHF_WRITE]
    Size   : 2144 bytes (alignment 8)
    Address: 0x20000010


** Section #4 '.debug_abbrev' (SHT_PROGBITS)
    Size   : 3538 bytes


** Section #5 '.debug_frame' (SHT_PROGBITS)
    Size   : 3728 bytes


** Section #6 '.debug_info' (SHT_PROGBITS)
    Size   : 21376 bytes


** Section #7 '.debug_line' (SHT_PROGBITS)
    Size   : 14526 bytes


** Section #8 '.debug_loc' (SHT_PROGBITS)
    Size   : 11853 bytes


** Section #9 '.debug_ranges' (SHT_PROGBITS)
    Size   : 1152 bytes


** Section #10 '.debug_str' (SHT_PROGBITS)
    Size   : 10120 bytes


** Section #11 '.symtab' (SHT_SYMTAB)
    Size   : 7088 bytes (alignment 4)
    String table #12 '.strtab'
    Last local symbol no. 247


** Section #12 '.strtab' (SHT_STRTAB)
    Size   : 4880 bytes


** Section #13 '.note' (SHT_NOTE)
    Size   : 28 bytes (alignment 4)


** Section #14 '.comment' (SHT_PROGBITS)
    Size   : 1624 bytes


** Section #15 '.shstrtab' (SHT_STRTAB)
    Size   : 148 bytes


